                              1 ;;; gcc for m6809 : Mar 17 2019 12:45:32
                              2 ;;; 4.3.6 (gcc6809)
                              3 ;;; ABI version 1
                              4 ;;; -mabi=bx -mint8 -fomit-frame-pointer -O3
                              5 	.module	main.enr.c
                              6 ; GNU C (GCC) version 4.3.6 (gcc6809) (m6809-unknown-none)
                              7 ;	compiled by GNU C version 7.4.0, GMP version 4.3.2, MPFR version 2.4.2.
                              8 ; GGC heuristics: --param ggc-min-expand=100 --param ggc-min-heapsize=131072
                              9 ; options passed:  -fno-gcse -fverbose-asm -W -Wall -Wextra -Wconversion
                             10 ; -Werror -fomit-frame-pointer -fno-toplevel-reorder -mint8
                             11 ; -msoft-reg-count=0 -std=gnu99 -fno-time-report
                             12 ; -IC:\Vide2.5.1.w64\Vide.w64\C\PeerC\vectrex\include -O3
                             13 ; -D__RUM_FUNCTION=1 -DOMMIT_FRAMEPOINTER=1
                             14 ; -IC:\Vide2.5.1.w64\Vide.w64\vectrex-pong\include
                             15 ; C:\Vide2.5.1.w64\Vide.w64\vectrex-pong\source\main.enr.c
                             16 ; options enabled:  -falign-loops -fargument-alias -fauto-inc-dec
                             17 ; -fbranch-count-reg -fcaller-saves -fcommon -fcprop-registers
                             18 ; -fcrossjumping -fcse-follow-jumps -fdefer-pop
                             19 ; -fdelete-null-pointer-checks -fearly-inlining
                             20 ; -feliminate-unused-debug-types -fexpensive-optimizations
                             21 ; -fforward-propagate -ffunction-cse -fgcse-after-reload -fgcse-lm
                             22 ; -fguess-branch-probability -fident -fif-conversion -fif-conversion2
                             23 ; -finline-functions -finline-functions-called-once
                             24 ; -finline-small-functions -fipa-pure-const -fipa-reference -fivopts
                             25 ; -fkeep-static-consts -fleading-underscore -fmath-errno -fmerge-constants
                             26 ; -fmerge-debug-strings -fmove-loop-invariants -fomit-frame-pointer
                             27 ; -foptimize-register-move -foptimize-sibling-calls -fpcc-struct-return
                             28 ; -fpeephole -fpeephole2 -fpredictive-commoning -fregmove -freorder-blocks
                             29 ; -freorder-functions -frerun-cse-after-loop -fsched-interblock
                             30 ; -fsched-spec -fsched-stalled-insns-dep -fsigned-zeros
                             31 ; -fsplit-ivs-in-unroller -fsplit-wide-types -fstrict-aliasing
                             32 ; -fstrict-overflow -fthread-jumps -ftrapping-math -ftree-ccp -ftree-ch
                             33 ; -ftree-copy-prop -ftree-copyrename -ftree-dce -ftree-dominator-opts
                             34 ; -ftree-dse -ftree-fre -ftree-loop-im -ftree-loop-ivcanon
                             35 ; -ftree-loop-optimize -ftree-parallelize-loops= -ftree-pre -ftree-reassoc
                             36 ; -ftree-salias -ftree-scev-cprop -ftree-sink -ftree-sra -ftree-store-ccp
                             37 ; -ftree-ter -ftree-vect-loop-version -ftree-vectorize -ftree-vrp
                             38 ; -funit-at-a-time -funswitch-loops -fverbose-asm -fzero-initialized-in-bss
                             39 
                             40 ; Compiler executable checksum: 8f282e2d9663ae6148257c524e608c63
                             41 
                             42 	.area	.bss
                             43 	.globl	_player1_x
   0000                      44 _player1_x:	.blkb	1
                             45 	.globl	_player1_y
   0001                      46 _player1_y:	.blkb	1
                             47 	.globl	_player2_x
   0002                      48 _player2_x:	.blkb	1
                             49 	.globl	_player2_y
   0003                      50 _player2_y:	.blkb	1
                             51 	.globl	_player1_score_str
   0004                      52 _player1_score_str:	.blkb	7
                             53 	.globl	_player2_score_str
   000B                      54 _player2_score_str:	.blkb	7
                             55 	.globl	_dot_x
   0012                      56 _dot_x:	.blkb	1
                             57 	.globl	_dot_y
   0013                      58 _dot_y:	.blkb	1
                             59 	.globl	_dot_x_vel
   0014                      60 _dot_x_vel:	.blkb	1
                             61 	.globl	_dot_y_vel
   0015                      62 _dot_y_vel:	.blkb	1
                             63 	.area	.text
                             64 	.globl	_reset_round
   0000                      65 _reset_round:
                             66 ;----- asm -----
                             67 ; 39 "C:\Vide2.5.1.w64\Vide.w64\vectrex-pong\source\main.enr.c" 1
                             68 	; #ENR#[34]  dot_x = 0;
                             69 ;--- end asm ---
   0000 7F 00 12      [ 7]   70 	clr	_dot_x	; dot_x
                             71 ;----- asm -----
                             72 ; 41 "C:\Vide2.5.1.w64\Vide.w64\vectrex-pong\source\main.enr.c" 1
                             73 	; #ENR#[35]  dot_y = 0;
                             74 ;--- end asm ---
   0003 7F 00 13      [ 7]   75 	clr	_dot_y	; dot_y
                             76 ;----- asm -----
                             77 ; 43 "C:\Vide2.5.1.w64\Vide.w64\vectrex-pong\source\main.enr.c" 1
                             78 	; #ENR#[36]  dot_x_vel = 2;
                             79 ;--- end asm ---
   0006 C6 02         [ 2]   80 	ldb	#2	;,
   0008 F7 00 14      [ 5]   81 	stb	_dot_x_vel	;, dot_x_vel
                             82 ;----- asm -----
                             83 ; 45 "C:\Vide2.5.1.w64\Vide.w64\vectrex-pong\source\main.enr.c" 1
                             84 	; #ENR#[37]  dot_y_vel = 2;
                             85 ;--- end asm ---
   000B F7 00 15      [ 5]   86 	stb	_dot_y_vel	;, dot_y_vel
                             87 ;----- asm -----
                             88 ; 48 "C:\Vide2.5.1.w64\Vide.w64\vectrex-pong\source\main.enr.c" 1
                             89 	; #ENR#[39]  player1_x = -HALF_PADDLE;
                             90 ;--- end asm ---
   000E C6 EE         [ 2]   91 	ldb	#-18	;,
   0010 F7 00 00      [ 5]   92 	stb	_player1_x	;, player1_x
                             93 ;----- asm -----
                             94 ; 50 "C:\Vide2.5.1.w64\Vide.w64\vectrex-pong\source\main.enr.c" 1
                             95 	; #ENR#[40]  player1_y = PADDLE_Y;
                             96 ;--- end asm ---
   0013 C6 64         [ 2]   97 	ldb	#100	;,
   0015 F7 00 01      [ 5]   98 	stb	_player1_y	;, player1_y
                             99 ;----- asm -----
                            100 ; 52 "C:\Vide2.5.1.w64\Vide.w64\vectrex-pong\source\main.enr.c" 1
                            101 	; #ENR#[41]  player2_x = -HALF_PADDLE;
                            102 ;--- end asm ---
   0018 C6 EE         [ 2]  103 	ldb	#-18	;,
   001A F7 00 02      [ 5]  104 	stb	_player2_x	;, player2_x
                            105 ;----- asm -----
                            106 ; 54 "C:\Vide2.5.1.w64\Vide.w64\vectrex-pong\source\main.enr.c" 1
                            107 	; #ENR#[42]  player2_y = -PADDLE_Y;
                            108 ;--- end asm ---
   001D C6 9C         [ 2]  109 	ldb	#-100	;,
   001F F7 00 03      [ 5]  110 	stb	_player2_y	;, player2_y
   0022 39            [ 5]  111 	rts
                            112 	.globl	_setup
   0023                     113 _setup:
                            114 ;----- asm -----
                            115 ; 62 "C:\Vide2.5.1.w64\Vide.w64\vectrex-pong\source\main.enr.c" 1
                            116 	; #ENR#[49]  disable_controller_1_x();
                            117 ;--- end asm ---
   0023 7F 00 00      [ 7]  118 	clr	_Vec_Joy_Mux_1_X	; Vec_Joy_Mux_1_X
                            119 ;----- asm -----
                            120 ; 64 "C:\Vide2.5.1.w64\Vide.w64\vectrex-pong\source\main.enr.c" 1
                            121 	; #ENR#[50]  disable_controller_1_y();
                            122 ;--- end asm ---
   0026 7F 00 00      [ 7]  123 	clr	_Vec_Joy_Mux_1_Y	; Vec_Joy_Mux_1_Y
                            124 ;----- asm -----
                            125 ; 66 "C:\Vide2.5.1.w64\Vide.w64\vectrex-pong\source\main.enr.c" 1
                            126 	; #ENR#[51]  disable_controller_2_x();
                            127 ;--- end asm ---
   0029 7F 00 00      [ 7]  128 	clr	_Vec_Joy_Mux_2_X	; Vec_Joy_Mux_2_X
                            129 ;----- asm -----
                            130 ; 68 "C:\Vide2.5.1.w64\Vide.w64\vectrex-pong\source\main.enr.c" 1
                            131 	; #ENR#[52]  disable_controller_2_y();
                            132 ;--- end asm ---
   002C 7F 00 00      [ 7]  133 	clr	_Vec_Joy_Mux_2_Y	; Vec_Joy_Mux_2_Y
                            134 ;----- asm -----
                            135 ; 70 "C:\Vide2.5.1.w64\Vide.w64\vectrex-pong\source\main.enr.c" 1
                            136 	; #ENR#[53]  Clear_Score(player1_score_str);
                            137 ;--- end asm ---
   002F 8E 00 04      [ 3]  138 	ldx	#_player1_score_str	;,
   0032 BD 00 00      [ 8]  139 	jsr	___Clear_Score
                            140 ;----- asm -----
                            141 ; 72 "C:\Vide2.5.1.w64\Vide.w64\vectrex-pong\source\main.enr.c" 1
                            142 	; #ENR#[54]  Clear_Score(player2_score_str);
                            143 ;--- end asm ---
   0035 8E 00 0B      [ 3]  144 	ldx	#_player2_score_str	;,
   0038 BD 00 00      [ 8]  145 	jsr	___Clear_Score
                            146 ;----- asm -----
                            147 ; 74 "C:\Vide2.5.1.w64\Vide.w64\vectrex-pong\source\main.enr.c" 1
                            148 	; #ENR#[55]  player1_score_str[6] = '€';
                            149 ;--- end asm ---
   003B C6 80         [ 2]  150 	ldb	#-128	;,
   003D F7 00 0A      [ 5]  151 	stb	_player1_score_str+6	;, player1_score_str
                            152 ;----- asm -----
                            153 ; 76 "C:\Vide2.5.1.w64\Vide.w64\vectrex-pong\source\main.enr.c" 1
                            154 	; #ENR#[56]  player2_score_str[6] = '€';
                            155 ;--- end asm ---
   0040 F7 00 11      [ 5]  156 	stb	_player2_score_str+6	;, player2_score_str
                            157 ;----- asm -----
                            158 ; 78 "C:\Vide2.5.1.w64\Vide.w64\vectrex-pong\source\main.enr.c" 1
                            159 	; #ENR#[57]  reset_round();
                            160 ; 39 "C:\Vide2.5.1.w64\Vide.w64\vectrex-pong\source\main.enr.c" 1
                            161 	; #ENR#[34]  dot_x = 0;
                            162 ;--- end asm ---
   0043 7F 00 12      [ 7]  163 	clr	_dot_x	; dot_x
                            164 ;----- asm -----
                            165 ; 41 "C:\Vide2.5.1.w64\Vide.w64\vectrex-pong\source\main.enr.c" 1
                            166 	; #ENR#[35]  dot_y = 0;
                            167 ;--- end asm ---
   0046 7F 00 13      [ 7]  168 	clr	_dot_y	; dot_y
                            169 ;----- asm -----
                            170 ; 43 "C:\Vide2.5.1.w64\Vide.w64\vectrex-pong\source\main.enr.c" 1
                            171 	; #ENR#[36]  dot_x_vel = 2;
                            172 ;--- end asm ---
   0049 C6 02         [ 2]  173 	ldb	#2	;,
   004B F7 00 14      [ 5]  174 	stb	_dot_x_vel	;, dot_x_vel
                            175 ;----- asm -----
                            176 ; 45 "C:\Vide2.5.1.w64\Vide.w64\vectrex-pong\source\main.enr.c" 1
                            177 	; #ENR#[37]  dot_y_vel = 2;
                            178 ;--- end asm ---
   004E F7 00 15      [ 5]  179 	stb	_dot_y_vel	;, dot_y_vel
                            180 ;----- asm -----
                            181 ; 48 "C:\Vide2.5.1.w64\Vide.w64\vectrex-pong\source\main.enr.c" 1
                            182 	; #ENR#[39]  player1_x = -HALF_PADDLE;
                            183 ;--- end asm ---
   0051 C6 EE         [ 2]  184 	ldb	#-18	;,
   0053 F7 00 00      [ 5]  185 	stb	_player1_x	;, player1_x
                            186 ;----- asm -----
                            187 ; 50 "C:\Vide2.5.1.w64\Vide.w64\vectrex-pong\source\main.enr.c" 1
                            188 	; #ENR#[40]  player1_y = PADDLE_Y;
                            189 ;--- end asm ---
   0056 C6 64         [ 2]  190 	ldb	#100	;,
   0058 F7 00 01      [ 5]  191 	stb	_player1_y	;, player1_y
                            192 ;----- asm -----
                            193 ; 52 "C:\Vide2.5.1.w64\Vide.w64\vectrex-pong\source\main.enr.c" 1
                            194 	; #ENR#[41]  player2_x = -HALF_PADDLE;
                            195 ;--- end asm ---
   005B C6 EE         [ 2]  196 	ldb	#-18	;,
   005D F7 00 02      [ 5]  197 	stb	_player2_x	;, player2_x
                            198 ;----- asm -----
                            199 ; 54 "C:\Vide2.5.1.w64\Vide.w64\vectrex-pong\source\main.enr.c" 1
                            200 	; #ENR#[42]  player2_y = -PADDLE_Y;
                            201 ;--- end asm ---
   0060 C6 9C         [ 2]  202 	ldb	#-100	;,
   0062 F7 00 03      [ 5]  203 	stb	_player2_y	;, player2_y
   0065 39            [ 5]  204 	rts
                            205 	.globl	_main
   0066                     206 _main:
   0066 32 79         [ 5]  207 	leas	-7,s	;,,
                            208 ;----- asm -----
                            209 ; 88 "C:\Vide2.5.1.w64\Vide.w64\vectrex-pong\source\main.enr.c" 1
                            210 	; #ENR#[66]  setup();
                            211 ;--- end asm ---
   0068 BD 00 23      [ 8]  212 	jsr	_setup
                            213 ;----- asm -----
                            214 ; 91 "C:\Vide2.5.1.w64\Vide.w64\vectrex-pong\source\main.enr.c" 1
                            215 	; #ENR#[68]  while (1) {
                            216 ;--- end asm ---
   006B 16 00 4B      [ 5]  217 	lbra	L18	;
   006E                     218 L10:
   006E E6 63         [ 5]  219 	ldb	3,s	;, dot_y.14
   0070 C1 88         [ 2]  220 	cmpb	#-120	;cmpqi:	;,
   0072 10 2D 01 89   [ 6]  221 	lblt	L21	;
   0076 F6 00 00      [ 5]  222 	ldb	_player1_x	; player1_x.60, player1_x
   0079 E1 61         [ 5]  223 	cmpb	1,s	;cmpqi:(R)	; player1_x.60, dot_x.12
   007B 10 2E 01 49   [ 6]  224 	lbgt	L13	;
   007F CB 24         [ 2]  225 	addb	#36	; player1_x.60,
   0081 E1 61         [ 5]  226 	cmpb	1,s	;cmpqi:(R)	; player1_x.60, dot_x.12
   0083 10 2D 01 41   [ 6]  227 	lblt	L13	;
   0087 F6 00 01      [ 5]  228 	ldb	_player1_y	;, player1_y
   008A E7 65         [ 5]  229 	stb	5,s	;, player1_y.61
   008C E0 62         [ 5]  230 	subb	2,s	; tmp52, dot_y_vel.13
   008E E1 63         [ 5]  231 	cmpb	3,s	;cmpqi:(R)	; tmp52, dot_y.14
   0090 10 2E 01 34   [ 6]  232 	lbgt	L13	;
   0094 E6 65         [ 5]  233 	ldb	5,s	;, player1_y.61
   0096 EB 62         [ 5]  234 	addb	2,s	;, dot_y_vel.13
   0098 E7 65         [ 5]  235 	stb	5,s	;, player1_y.61
   009A E6 63         [ 5]  236 	ldb	3,s	;, dot_y.14
   009C E1 65         [ 5]  237 	cmpb	5,s	;cmpqi:	;, player1_y.61
   009E 10 2E 01 26   [ 6]  238 	lbgt	L13	;
                            239 ;----- asm -----
                            240 ; 163 "C:\Vide2.5.1.w64\Vide.w64\vectrex-pong\source\main.enr.c" 1
                            241 	; #ENR#[114]      dot_y_vel = -dot_y_vel;
                            242 ;--- end asm ---
   00A2 E6 62         [ 5]  243 	ldb	2,s	; dot_y_vel.15, dot_y_vel.13
   00A4 50            [ 2]  244 	negb	; dot_y_vel.15
   00A5 F7 00 15      [ 5]  245 	stb	_dot_y_vel	; dot_y_vel.15, dot_y_vel
                            246 ;----- asm -----
                            247 ; 165 "C:\Vide2.5.1.w64\Vide.w64\vectrex-pong\source\main.enr.c" 1
                            248 	; #ENR#[115]      dot_y = dot_y + 2 * dot_y_vel;
                            249 ;--- end asm ---
   00A8 58            [ 2]  250 	aslb	; dot_y_vel.15
   00A9 EB 63         [ 5]  251 	addb	3,s	; dot_y_vel.15, dot_y.14
   00AB F7 00 13      [ 5]  252 	stb	_dot_y	; dot_y_vel.15, dot_y
   00AE                     253 L11:
                            254 ;----- asm -----
                            255 ; 175 "C:\Vide2.5.1.w64\Vide.w64\vectrex-pong\source\main.enr.c" 1
                            256 	; #ENR#[122]    if (dot_x > BOUND_X || dot_x < -BOUND_X) {
                            257 ;--- end asm ---
   00AE F6 00 12      [ 5]  258 	ldb	_dot_x	; tmp59, dot_x
   00B1 CB 64         [ 2]  259 	addb	#100	; tmp59,
   00B3 C1 C8         [ 2]  260 	cmpb	#-56	;cmpqi:	; tmp59,
   00B5 10 22 01 51   [ 6]  261 	lbhi	L22	;
   00B9                     262 L18:
                            263 ;----- asm -----
                            264 ; 93 "C:\Vide2.5.1.w64\Vide.w64\vectrex-pong\source\main.enr.c" 1
                            265 	; #ENR#[69]    loop_setup();
                            266 ; 28 "C:\Vide2.5.1.w64\Vide.w64\vectrex-pong\source\main.enr.c" 1
                            267 	; #ENR#[27]  Wait_Recal();
                            268 ;--- end asm ---
   00B9 BD 00 00      [ 8]  269 	jsr	___Wait_Recal
                            270 ;----- asm -----
                            271 ; 30 "C:\Vide2.5.1.w64\Vide.w64\vectrex-pong\source\main.enr.c" 1
                            272 	; #ENR#[28]  check_buttons(); /* update status of buttons * /
                            273 ;--- end asm ---
   00BC BD 00 00      [ 8]  274 	jsr	___Read_Btns
                            275 ;----- asm -----
                            276 ; 32 "C:\Vide2.5.1.w64\Vide.w64\vectrex-pong\source\main.enr.c" 1
                            277 	; #ENR#[29]  Intensity_a(MAX_BRIGHTNESS); /* set some brightness * /
                            278 ;--- end asm ---
   00BF C6 7F         [ 2]  279 	ldb	#127	;,
   00C1 BD 00 00      [ 8]  280 	jsr	__Intensity_a
                            281 ;----- asm -----
                            282 ; 34 "C:\Vide2.5.1.w64\Vide.w64\vectrex-pong\source\main.enr.c" 1
                            283 	; #ENR#[30]  VIA_t1_cnt_lo = SCALE;      /* set scale factor * /
                            284 ;--- end asm ---
   00C4 C6 7F         [ 2]  285 	ldb	#127	;,
   00C6 F7 00 00      [ 5]  286 	stb	_VIA_t1_cnt_lo	;, VIA_t1_cnt_lo
                            287 ;----- asm -----
                            288 ; 97 "C:\Vide2.5.1.w64\Vide.w64\vectrex-pong\source\main.enr.c" 1
                            289 	; #ENR#[72]    Print_Str_d(127, -128, player1_score_str);
                            290 ;--- end asm ---
   00C9 E7 E2         [ 6]  291 	stb	,-s	;,
   00CB 8E 00 04      [ 3]  292 	ldx	#_player1_score_str	;,
   00CE 5C            [ 2]  293 	incb	;
   00CF BD 00 00      [ 8]  294 	jsr	__Print_Str_d
                            295 ;----- asm -----
                            296 ; 99 "C:\Vide2.5.1.w64\Vide.w64\vectrex-pong\source\main.enr.c" 1
                            297 	; #ENR#[73]    Print_Str_d(-128, -128, player2_score_str);
                            298 ;--- end asm ---
   00D2 C6 80         [ 2]  299 	ldb	#-128	;,
   00D4 E7 E2         [ 6]  300 	stb	,-s	;,
   00D6 8E 00 0B      [ 3]  301 	ldx	#_player2_score_str	;,
   00D9 BD 00 00      [ 8]  302 	jsr	__Print_Str_d
                            303 ;----- asm -----
                            304 ; 103 "C:\Vide2.5.1.w64\Vide.w64\vectrex-pong\source\main.enr.c" 1
                            305 	; #ENR#[76]    Dot_d(dot_y, dot_x);
                            306 ;--- end asm ---
   00DC F6 00 13      [ 5]  307 	ldb	_dot_y	;, dot_y
   00DF E7 E2         [ 6]  308 	stb	,-s	;,
   00E1 F6 00 12      [ 5]  309 	ldb	_dot_x	;, dot_x
   00E4 BD 00 00      [ 8]  310 	jsr	__Dot_d
                            311 ;----- asm -----
                            312 ; 105 "C:\Vide2.5.1.w64\Vide.w64\vectrex-pong\source\main.enr.c" 1
                            313 	; #ENR#[77]    Moveto_d(-dot_y, -dot_x);
                            314 ;--- end asm ---
   00E7 F6 00 12      [ 5]  315 	ldb	_dot_x	;, dot_x
   00EA 50            [ 2]  316 	negb	;
   00EB E7 63         [ 5]  317 	stb	3,s	;,
   00ED F6 00 13      [ 5]  318 	ldb	_dot_y	;, dot_y
   00F0 50            [ 2]  319 	negb	;
   00F1 34 04         [ 6]  320 	pshs	b	;
   00F3 E6 64         [ 5]  321 	ldb	4,s	;,
   00F5 BD 00 00      [ 8]  322 	jsr	__Moveto_d
                            323 ;----- asm -----
                            324 ; 109 "C:\Vide2.5.1.w64\Vide.w64\vectrex-pong\source\main.enr.c" 1
                            325 	; #ENR#[80]    if (button_1_1_held() && player1_x > -BOUND_X) {
                            326 ;--- end asm ---
   00F8 F6 00 00      [ 5]  327 	ldb	_Vec_Btn_State	;, Vec_Btn_State
   00FB E7 68         [ 5]  328 	stb	8,s	;, D.3132
   00FD 32 64         [ 5]  329 	leas	4,s	;,,
   00FF C5 01         [ 2]  330 	bitb	#1	;,
   0101 27 0C         [ 3]  331 	beq	L6	;
   0103 F6 00 00      [ 5]  332 	ldb	_player1_x	; player1_x.3, player1_x
   0106 C1 9D         [ 2]  333 	cmpb	#-99	;cmpqi:	; player1_x.3,
   0108 2D 05         [ 3]  334 	blt	L6	;
                            335 ;----- asm -----
                            336 ; 111 "C:\Vide2.5.1.w64\Vide.w64\vectrex-pong\source\main.enr.c" 1
                            337 	; #ENR#[81]      player1_x -= PADDLE_SPEED;
                            338 ;--- end asm ---
   010A CB FD         [ 2]  339 	addb	#-3	; player1_x.3,
   010C F7 00 00      [ 5]  340 	stb	_player1_x	; player1_x.3, player1_x
   010F                     341 L6:
                            342 ;----- asm -----
                            343 ; 114 "C:\Vide2.5.1.w64\Vide.w64\vectrex-pong\source\main.enr.c" 1
                            344 	; #ENR#[83]    if (button_1_2_held() && player1_x + PADDLE_LENGTH < BOUND_X) {
                            345 ;--- end asm ---
   010F C6 02         [ 2]  346 	ldb	#2	; tmp45,
   0111 E4 64         [ 5]  347 	andb	4,s	; tmp45, D.3132
   0113 27 0C         [ 3]  348 	beq	L7	;
   0115 F6 00 00      [ 5]  349 	ldb	_player1_x	; player1_x.52, player1_x
   0118 C1 3F         [ 2]  350 	cmpb	#63	;cmpqi:	; player1_x.52,
   011A 2E 05         [ 3]  351 	bgt	L7	;
                            352 ;----- asm -----
                            353 ; 116 "C:\Vide2.5.1.w64\Vide.w64\vectrex-pong\source\main.enr.c" 1
                            354 	; #ENR#[84]      player1_x += PADDLE_SPEED;
                            355 ;--- end asm ---
   011C CB 03         [ 2]  356 	addb	#3	; player1_x.52,
   011E F7 00 00      [ 5]  357 	stb	_player1_x	; player1_x.52, player1_x
   0121                     358 L7:
                            359 ;----- asm -----
                            360 ; 119 "C:\Vide2.5.1.w64\Vide.w64\vectrex-pong\source\main.enr.c" 1
                            361 	; #ENR#[86]    if (button_1_3_held() && player2_x > - BOUND_X) {
                            362 ;--- end asm ---
   0121 C6 04         [ 2]  363 	ldb	#4	; tmp46,
   0123 E4 64         [ 5]  364 	andb	4,s	; tmp46, D.3132
   0125 27 0C         [ 3]  365 	beq	L8	;
   0127 F6 00 02      [ 5]  366 	ldb	_player2_x	; player2_x.6, player2_x
   012A C1 9D         [ 2]  367 	cmpb	#-99	;cmpqi:	; player2_x.6,
   012C 2D 05         [ 3]  368 	blt	L8	;
                            369 ;----- asm -----
                            370 ; 121 "C:\Vide2.5.1.w64\Vide.w64\vectrex-pong\source\main.enr.c" 1
                            371 	; #ENR#[87]      player2_x -= PADDLE_SPEED;
                            372 ;--- end asm ---
   012E CB FD         [ 2]  373 	addb	#-3	; player2_x.6,
   0130 F7 00 02      [ 5]  374 	stb	_player2_x	; player2_x.6, player2_x
   0133                     375 L8:
                            376 ;----- asm -----
                            377 ; 124 "C:\Vide2.5.1.w64\Vide.w64\vectrex-pong\source\main.enr.c" 1
                            378 	; #ENR#[89]    if (button_1_4_held() && player2_x + PADDLE_LENGTH < BOUND_X) {
                            379 ;--- end asm ---
   0133 C6 08         [ 2]  380 	ldb	#8	;,
   0135 E4 64         [ 5]  381 	andb	4,s	;, D.3132
   0137 27 0C         [ 3]  382 	beq	L9	;
   0139 F6 00 02      [ 5]  383 	ldb	_player2_x	; player2_x.53, player2_x
   013C C1 3F         [ 2]  384 	cmpb	#63	;cmpqi:	; player2_x.53,
   013E 2E 05         [ 3]  385 	bgt	L9	;
                            386 ;----- asm -----
                            387 ; 126 "C:\Vide2.5.1.w64\Vide.w64\vectrex-pong\source\main.enr.c" 1
                            388 	; #ENR#[90]      player2_x += PADDLE_SPEED;
                            389 ;--- end asm ---
   0140 CB 03         [ 2]  390 	addb	#3	; player2_x.53,
   0142 F7 00 02      [ 5]  391 	stb	_player2_x	; player2_x.53, player2_x
   0145                     392 L9:
                            393 ;----- asm -----
                            394 ; 131 "C:\Vide2.5.1.w64\Vide.w64\vectrex-pong\source\main.enr.c" 1
                            395 	; #ENR#[94]    Moveto_d(player1_y, player1_x);
                            396 ;--- end asm ---
   0145 F6 00 01      [ 5]  397 	ldb	_player1_y	;, player1_y
   0148 E7 E2         [ 6]  398 	stb	,-s	;,
   014A F6 00 00      [ 5]  399 	ldb	_player1_x	;, player1_x
   014D BD 00 00      [ 8]  400 	jsr	__Moveto_d
                            401 ;----- asm -----
                            402 ; 133 "C:\Vide2.5.1.w64\Vide.w64\vectrex-pong\source\main.enr.c" 1
                            403 	; #ENR#[95]    Draw_Line_d(0, PADDLE_LENGTH);
                            404 ;--- end asm ---
   0150 6F E2         [ 8]  405 	clr	,-s	;
   0152 C6 24         [ 2]  406 	ldb	#36	;,
   0154 BD 00 00      [ 8]  407 	jsr	__Draw_Line_d
                            408 ;----- asm -----
                            409 ; 135 "C:\Vide2.5.1.w64\Vide.w64\vectrex-pong\source\main.enr.c" 1
                            410 	; #ENR#[96]    Moveto_d(-player1_y, -player1_x - PADDLE_LENGTH);
                            411 ;--- end asm ---
   0157 C6 DC         [ 2]  412 	ldb	#-36	; tmp49,
   0159 F0 00 00      [ 5]  413 	subb	_player1_x	; tmp49, player1_x
   015C E7 62         [ 5]  414 	stb	2,s	; tmp49,
   015E F6 00 01      [ 5]  415 	ldb	_player1_y	;, player1_y
   0161 50            [ 2]  416 	negb	;
   0162 34 04         [ 6]  417 	pshs	b	;
   0164 E6 63         [ 5]  418 	ldb	3,s	;,
   0166 BD 00 00      [ 8]  419 	jsr	__Moveto_d
                            420 ;----- asm -----
                            421 ; 139 "C:\Vide2.5.1.w64\Vide.w64\vectrex-pong\source\main.enr.c" 1
                            422 	; #ENR#[99]    Moveto_d(player2_y, player2_x);
                            423 ;--- end asm ---
   0169 F6 00 03      [ 5]  424 	ldb	_player2_y	;, player2_y
   016C E7 E2         [ 6]  425 	stb	,-s	;,
   016E F6 00 02      [ 5]  426 	ldb	_player2_x	;, player2_x
   0171 BD 00 00      [ 8]  427 	jsr	__Moveto_d
                            428 ;----- asm -----
                            429 ; 141 "C:\Vide2.5.1.w64\Vide.w64\vectrex-pong\source\main.enr.c" 1
                            430 	; #ENR#[100]    Draw_Line_d(0, PADDLE_LENGTH);
                            431 ;--- end asm ---
   0174 6F E2         [ 8]  432 	clr	,-s	;
   0176 C6 24         [ 2]  433 	ldb	#36	;,
   0178 BD 00 00      [ 8]  434 	jsr	__Draw_Line_d
                            435 ;----- asm -----
                            436 ; 145 "C:\Vide2.5.1.w64\Vide.w64\vectrex-pong\source\main.enr.c" 1
                            437 	; #ENR#[103]    dot_x = dot_x + dot_x_vel;
                            438 ;--- end asm ---
   017B F6 00 14      [ 5]  439 	ldb	_dot_x_vel	;, dot_x_vel
   017E FB 00 12      [ 5]  440 	addb	_dot_x	;, dot_x
   0181 E7 66         [ 5]  441 	stb	6,s	;, dot_x.12
   0183 F7 00 12      [ 5]  442 	stb	_dot_x	;, dot_x
                            443 ;----- asm -----
                            444 ; 147 "C:\Vide2.5.1.w64\Vide.w64\vectrex-pong\source\main.enr.c" 1
                            445 	; #ENR#[104]    dot_y = dot_y + dot_y_vel;
                            446 ;--- end asm ---
   0186 F6 00 15      [ 5]  447 	ldb	_dot_y_vel	;, dot_y_vel
   0189 E7 67         [ 5]  448 	stb	7,s	;, dot_y_vel.13
   018B FB 00 13      [ 5]  449 	addb	_dot_y	;, dot_y
   018E E7 68         [ 5]  450 	stb	8,s	;, dot_y.14
   0190 F7 00 13      [ 5]  451 	stb	_dot_y	;, dot_y
                            452 ;----- asm -----
                            453 ; 151 "C:\Vide2.5.1.w64\Vide.w64\vectrex-pong\source\main.enr.c" 1
                            454 	; #ENR#[107]    if (dot_y > BOUND_Y) {
                            455 ;--- end asm ---
   0193 32 65         [ 5]  456 	leas	5,s	;,,
   0195 C1 78         [ 2]  457 	cmpb	#120	;cmpqi:	;,
   0197 10 2F FE D3   [ 6]  458 	lble	L10	;
                            459 ;----- asm -----
                            460 ; 153 "C:\Vide2.5.1.w64\Vide.w64\vectrex-pong\source\main.enr.c" 1
                            461 	; #ENR#[108]      Add_Score_a(1, player2_score_str);
                            462 ;--- end asm ---
   019B 8E 00 0B      [ 3]  463 	ldx	#_player2_score_str	;,
   019E C6 01         [ 2]  464 	ldb	#1	;,
   01A0 BD 00 00      [ 8]  465 	jsr	__Add_Score_a
                            466 ;----- asm -----
                            467 ; 155 "C:\Vide2.5.1.w64\Vide.w64\vectrex-pong\source\main.enr.c" 1
                            468 	; #ENR#[109]      reset_round();
                            469 ;--- end asm ---
   01A3                     470 L19:
                            471 ;----- asm -----
                            472 ; 39 "C:\Vide2.5.1.w64\Vide.w64\vectrex-pong\source\main.enr.c" 1
                            473 	; #ENR#[34]  dot_x = 0;
                            474 ;--- end asm ---
   01A3 7F 00 12      [ 7]  475 	clr	_dot_x	; dot_x
                            476 ;----- asm -----
                            477 ; 41 "C:\Vide2.5.1.w64\Vide.w64\vectrex-pong\source\main.enr.c" 1
                            478 	; #ENR#[35]  dot_y = 0;
                            479 ;--- end asm ---
   01A6 7F 00 13      [ 7]  480 	clr	_dot_y	; dot_y
                            481 ;----- asm -----
                            482 ; 43 "C:\Vide2.5.1.w64\Vide.w64\vectrex-pong\source\main.enr.c" 1
                            483 	; #ENR#[36]  dot_x_vel = 2;
                            484 ;--- end asm ---
   01A9 C6 02         [ 2]  485 	ldb	#2	;,
   01AB F7 00 14      [ 5]  486 	stb	_dot_x_vel	;, dot_x_vel
                            487 ;----- asm -----
                            488 ; 45 "C:\Vide2.5.1.w64\Vide.w64\vectrex-pong\source\main.enr.c" 1
                            489 	; #ENR#[37]  dot_y_vel = 2;
                            490 ;--- end asm ---
   01AE F7 00 15      [ 5]  491 	stb	_dot_y_vel	;, dot_y_vel
                            492 ;----- asm -----
                            493 ; 48 "C:\Vide2.5.1.w64\Vide.w64\vectrex-pong\source\main.enr.c" 1
                            494 	; #ENR#[39]  player1_x = -HALF_PADDLE;
                            495 ;--- end asm ---
   01B1 C6 EE         [ 2]  496 	ldb	#-18	;,
   01B3 F7 00 00      [ 5]  497 	stb	_player1_x	;, player1_x
                            498 ;----- asm -----
                            499 ; 50 "C:\Vide2.5.1.w64\Vide.w64\vectrex-pong\source\main.enr.c" 1
                            500 	; #ENR#[40]  player1_y = PADDLE_Y;
                            501 ;--- end asm ---
   01B6 C6 64         [ 2]  502 	ldb	#100	;,
   01B8 F7 00 01      [ 5]  503 	stb	_player1_y	;, player1_y
                            504 ;----- asm -----
                            505 ; 52 "C:\Vide2.5.1.w64\Vide.w64\vectrex-pong\source\main.enr.c" 1
                            506 	; #ENR#[41]  player2_x = -HALF_PADDLE;
                            507 ;--- end asm ---
   01BB C6 EE         [ 2]  508 	ldb	#-18	;,
   01BD F7 00 02      [ 5]  509 	stb	_player2_x	;, player2_x
                            510 ;----- asm -----
                            511 ; 54 "C:\Vide2.5.1.w64\Vide.w64\vectrex-pong\source\main.enr.c" 1
                            512 	; #ENR#[42]  player2_y = -PADDLE_Y;
                            513 ;--- end asm ---
   01C0 C6 9C         [ 2]  514 	ldb	#-100	;,
   01C2 F7 00 03      [ 5]  515 	stb	_player2_y	;, player2_y
   01C5 16 FE E6      [ 5]  516 	lbra	L11	;
   01C8                     517 L13:
   01C8 F6 00 02      [ 5]  518 	ldb	_player2_x	; player2_x.62, player2_x
   01CB E1 61         [ 5]  519 	cmpb	1,s	;cmpqi:(R)	; player2_x.62, dot_x.12
   01CD 10 2E FE DD   [ 6]  520 	lbgt	L11	;
   01D1 CB 24         [ 2]  521 	addb	#36	; player2_x.62,
   01D3 E1 61         [ 5]  522 	cmpb	1,s	;cmpqi:(R)	; player2_x.62, dot_x.12
   01D5 10 2D FE D5   [ 6]  523 	lblt	L11	;
   01D9 F6 00 03      [ 5]  524 	ldb	_player2_y	;, player2_y
   01DC E7 66         [ 5]  525 	stb	6,s	;, player2_y.63
   01DE EB 62         [ 5]  526 	addb	2,s	; tmp56, dot_y_vel.13
   01E0 E1 63         [ 5]  527 	cmpb	3,s	;cmpqi:(R)	; tmp56, dot_y.14
   01E2 10 2E FE C8   [ 6]  528 	lbgt	L11	;
   01E6 E6 66         [ 5]  529 	ldb	6,s	; tmp57, player2_y.63
   01E8 E0 62         [ 5]  530 	subb	2,s	; tmp57, dot_y_vel.13
   01EA E1 63         [ 5]  531 	cmpb	3,s	;cmpqi:(R)	; tmp57, dot_y.14
   01EC 10 2D FE BE   [ 6]  532 	lblt	L11	;
                            533 ;----- asm -----
                            534 ; 168 "C:\Vide2.5.1.w64\Vide.w64\vectrex-pong\source\main.enr.c" 1
                            535 	; #ENR#[117]      dot_y_vel = -dot_y_vel;
                            536 ;--- end asm ---
   01F0 E6 62         [ 5]  537 	ldb	2,s	; dot_y_vel.64, dot_y_vel.13
   01F2 50            [ 2]  538 	negb	; dot_y_vel.64
   01F3 F7 00 15      [ 5]  539 	stb	_dot_y_vel	; dot_y_vel.64, dot_y_vel
                            540 ;----- asm -----
                            541 ; 170 "C:\Vide2.5.1.w64\Vide.w64\vectrex-pong\source\main.enr.c" 1
                            542 	; #ENR#[118]      dot_y = dot_y + 2 * dot_y_vel;
                            543 ;--- end asm ---
   01F6 58            [ 2]  544 	aslb	; dot_y_vel.64
   01F7 EB 63         [ 5]  545 	addb	3,s	; dot_y_vel.64, dot_y.14
   01F9 F7 00 13      [ 5]  546 	stb	_dot_y	; dot_y_vel.64, dot_y
   01FC 16 FE AF      [ 5]  547 	lbra	L11	;
   01FF                     548 L21:
                            549 ;----- asm -----
                            550 ; 158 "C:\Vide2.5.1.w64\Vide.w64\vectrex-pong\source\main.enr.c" 1
                            551 	; #ENR#[111]      Add_Score_a(1, player1_score_str);
                            552 ;--- end asm ---
   01FF 8E 00 04      [ 3]  553 	ldx	#_player1_score_str	;,
   0202 C6 01         [ 2]  554 	ldb	#1	;,
   0204 BD 00 00      [ 8]  555 	jsr	__Add_Score_a
                            556 ;----- asm -----
                            557 ; 160 "C:\Vide2.5.1.w64\Vide.w64\vectrex-pong\source\main.enr.c" 1
                            558 	; #ENR#[112]      reset_round();
                            559 ;--- end asm ---
   0207 16 FF 99      [ 5]  560 	lbra	L19	;
   020A                     561 L22:
                            562 ;----- asm -----
                            563 ; 177 "C:\Vide2.5.1.w64\Vide.w64\vectrex-pong\source\main.enr.c" 1
                            564 	; #ENR#[123]      dot_x_vel = -dot_x_vel;
                            565 ;--- end asm ---
   020A 70 00 14      [ 7]  566 	neg	_dot_x_vel	; dot_x_vel
   020D 16 FE A9      [ 5]  567 	lbra	L18	;
ASxxxx Assembler V05.00  (Motorola 6809), page 1.
Hexidecimal [16-Bits]

Symbol Table

    .__.$$$.       =   2710 L   |     .__.ABS.       =   0000 G
    .__.CPU.       =   0000 L   |     .__.H$L.       =   0001 L
  3 A$main$103         0018 GR  |   3 A$main$104         001A GR
  3 A$main$109         001D GR  |   3 A$main$110         001F GR
  3 A$main$111         0022 GR  |   3 A$main$118         0023 GR
  3 A$main$123         0026 GR  |   3 A$main$128         0029 GR
  3 A$main$133         002C GR  |   3 A$main$138         002F GR
  3 A$main$139         0032 GR  |   3 A$main$144         0035 GR
  3 A$main$145         0038 GR  |   3 A$main$150         003B GR
  3 A$main$151         003D GR  |   3 A$main$156         0040 GR
  3 A$main$163         0043 GR  |   3 A$main$168         0046 GR
  3 A$main$173         0049 GR  |   3 A$main$174         004B GR
  3 A$main$179         004E GR  |   3 A$main$184         0051 GR
  3 A$main$185         0053 GR  |   3 A$main$190         0056 GR
  3 A$main$191         0058 GR  |   3 A$main$196         005B GR
  3 A$main$197         005D GR  |   3 A$main$202         0060 GR
  3 A$main$203         0062 GR  |   3 A$main$204         0065 GR
  3 A$main$207         0066 GR  |   3 A$main$212         0068 GR
  3 A$main$217         006B GR  |   3 A$main$219         006E GR
  3 A$main$220         0070 GR  |   3 A$main$221         0072 GR
  3 A$main$222         0076 GR  |   3 A$main$223         0079 GR
  3 A$main$224         007B GR  |   3 A$main$225         007F GR
  3 A$main$226         0081 GR  |   3 A$main$227         0083 GR
  3 A$main$228         0087 GR  |   3 A$main$229         008A GR
  3 A$main$230         008C GR  |   3 A$main$231         008E GR
  3 A$main$232         0090 GR  |   3 A$main$233         0094 GR
  3 A$main$234         0096 GR  |   3 A$main$235         0098 GR
  3 A$main$236         009A GR  |   3 A$main$237         009C GR
  3 A$main$238         009E GR  |   3 A$main$243         00A2 GR
  3 A$main$244         00A4 GR  |   3 A$main$245         00A5 GR
  3 A$main$250         00A8 GR  |   3 A$main$251         00A9 GR
  3 A$main$252         00AB GR  |   3 A$main$258         00AE GR
  3 A$main$259         00B1 GR  |   3 A$main$260         00B3 GR
  3 A$main$261         00B5 GR  |   3 A$main$269         00B9 GR
  3 A$main$274         00BC GR  |   3 A$main$279         00BF GR
  3 A$main$280         00C1 GR  |   3 A$main$285         00C4 GR
  3 A$main$286         00C6 GR  |   3 A$main$291         00C9 GR
  3 A$main$292         00CB GR  |   3 A$main$293         00CE GR
  3 A$main$294         00CF GR  |   3 A$main$299         00D2 GR
  3 A$main$300         00D4 GR  |   3 A$main$301         00D6 GR
  3 A$main$302         00D9 GR  |   3 A$main$307         00DC GR
  3 A$main$308         00DF GR  |   3 A$main$309         00E1 GR
  3 A$main$310         00E4 GR  |   3 A$main$315         00E7 GR
  3 A$main$316         00EA GR  |   3 A$main$317         00EB GR
  3 A$main$318         00ED GR  |   3 A$main$319         00F0 GR
  3 A$main$320         00F1 GR  |   3 A$main$321         00F3 GR
  3 A$main$322         00F5 GR  |   3 A$main$327         00F8 GR
  3 A$main$328         00FB GR  |   3 A$main$329         00FD GR
  3 A$main$330         00FF GR  |   3 A$main$331         0101 GR
  3 A$main$332         0103 GR  |   3 A$main$333         0106 GR
  3 A$main$334         0108 GR  |   3 A$main$339         010A GR
  3 A$main$340         010C GR  |   3 A$main$346         010F GR
  3 A$main$347         0111 GR  |   3 A$main$348         0113 GR
  3 A$main$349         0115 GR  |   3 A$main$350         0118 GR
  3 A$main$351         011A GR  |   3 A$main$356         011C GR
  3 A$main$357         011E GR  |   3 A$main$363         0121 GR
  3 A$main$364         0123 GR  |   3 A$main$365         0125 GR
  3 A$main$366         0127 GR  |   3 A$main$367         012A GR
  3 A$main$368         012C GR  |   3 A$main$373         012E GR
  3 A$main$374         0130 GR  |   3 A$main$380         0133 GR
  3 A$main$381         0135 GR  |   3 A$main$382         0137 GR
  3 A$main$383         0139 GR  |   3 A$main$384         013C GR
  3 A$main$385         013E GR  |   3 A$main$390         0140 GR
  3 A$main$391         0142 GR  |   3 A$main$397         0145 GR
  3 A$main$398         0148 GR  |   3 A$main$399         014A GR
  3 A$main$400         014D GR  |   3 A$main$405         0150 GR
  3 A$main$406         0152 GR  |   3 A$main$407         0154 GR
  3 A$main$412         0157 GR  |   3 A$main$413         0159 GR
  3 A$main$414         015C GR  |   3 A$main$415         015E GR
  3 A$main$416         0161 GR  |   3 A$main$417         0162 GR
  3 A$main$418         0164 GR  |   3 A$main$419         0166 GR
  3 A$main$424         0169 GR  |   3 A$main$425         016C GR
  3 A$main$426         016E GR  |   3 A$main$427         0171 GR
  3 A$main$432         0174 GR  |   3 A$main$433         0176 GR
  3 A$main$434         0178 GR  |   3 A$main$439         017B GR
  3 A$main$440         017E GR  |   3 A$main$441         0181 GR
  3 A$main$442         0183 GR  |   3 A$main$447         0186 GR
  3 A$main$448         0189 GR  |   3 A$main$449         018B GR
  3 A$main$450         018E GR  |   3 A$main$451         0190 GR
  3 A$main$456         0193 GR  |   3 A$main$457         0195 GR
  3 A$main$458         0197 GR  |   3 A$main$463         019B GR
  3 A$main$464         019E GR  |   3 A$main$465         01A0 GR
  3 A$main$475         01A3 GR  |   3 A$main$480         01A6 GR
  3 A$main$485         01A9 GR  |   3 A$main$486         01AB GR
  3 A$main$491         01AE GR  |   3 A$main$496         01B1 GR
  3 A$main$497         01B3 GR  |   3 A$main$502         01B6 GR
  3 A$main$503         01B8 GR  |   3 A$main$508         01BB GR
  3 A$main$509         01BD GR  |   3 A$main$514         01C0 GR
  3 A$main$515         01C2 GR  |   3 A$main$516         01C5 GR
  3 A$main$518         01C8 GR  |   3 A$main$519         01CB GR
  3 A$main$520         01CD GR  |   3 A$main$521         01D1 GR
  3 A$main$522         01D3 GR  |   3 A$main$523         01D5 GR
  3 A$main$524         01D9 GR  |   3 A$main$525         01DC GR
  3 A$main$526         01DE GR  |   3 A$main$527         01E0 GR
  3 A$main$528         01E2 GR  |   3 A$main$529         01E6 GR
  3 A$main$530         01E8 GR  |   3 A$main$531         01EA GR
  3 A$main$532         01EC GR  |   3 A$main$537         01F0 GR
  3 A$main$538         01F2 GR  |   3 A$main$539         01F3 GR
  3 A$main$544         01F6 GR  |   3 A$main$545         01F7 GR
  3 A$main$546         01F9 GR  |   3 A$main$547         01FC GR
  3 A$main$553         01FF GR  |   3 A$main$554         0202 GR
  3 A$main$555         0204 GR  |   3 A$main$560         0207 GR
  3 A$main$566         020A GR  |   3 A$main$567         020D GR
  3 A$main$70          0000 GR  |   3 A$main$75          0003 GR
  3 A$main$80          0006 GR  |   3 A$main$81          0008 GR
  3 A$main$86          000B GR  |   3 A$main$91          000E GR
  3 A$main$92          0010 GR  |   3 A$main$97          0013 GR
  3 A$main$98          0015 GR  |   3 L10                006E R
  3 L11                00AE R   |   3 L13                01C8 R
  3 L18                00B9 R   |   3 L19                01A3 R
  3 L21                01FF R   |   3 L22                020A R
  3 L6                 010F R   |   3 L7                 0121 R
  3 L8                 0133 R   |   3 L9                 0145 R
    _VIA_t1_cnt_lo     **** GX  |     _Vec_Btn_State     **** GX
    _Vec_Joy_Mux_1     **** GX  |     _Vec_Joy_Mux_1     **** GX
    _Vec_Joy_Mux_2     **** GX  |     _Vec_Joy_Mux_2     **** GX
    __Add_Score_a      **** GX  |     __Dot_d            **** GX
    __Draw_Line_d      **** GX  |     __Intensity_a      **** GX
    __Moveto_d         **** GX  |     __Print_Str_d      **** GX
    ___Clear_Score     **** GX  |     ___Read_Btns       **** GX
    ___Wait_Recal      **** GX  |   2 _dot_x             0012 GR
  2 _dot_x_vel         0014 GR  |   2 _dot_y             0013 GR
  2 _dot_y_vel         0015 GR  |   3 _main              0066 GR
  2 _player1_score     0004 GR  |   2 _player1_x         0000 GR
  2 _player1_y         0001 GR  |   2 _player2_score     000B GR
  2 _player2_x         0002 GR  |   2 _player2_y         0003 GR
  3 _reset_round       0000 GR  |   3 _setup             0023 GR

ASxxxx Assembler V05.00  (Motorola 6809), page 2.
Hexidecimal [16-Bits]

Area Table

[_CSEG]
   0 _CODE            size    0   flags C080
   2 .bss             size   16   flags    0
   3 .text            size  210   flags  100
[_DSEG]
   1 _DATA            size    0   flags C0C0

