                              1 ;;; gcc for m6809 : Mar 17 2019 12:45:32
                              2 ;;; 4.3.6 (gcc6809)
                              3 ;;; ABI version 1
                              4 ;;; -mabi=bx -mint8 -fomit-frame-pointer -O3
                              5 	.module	main.c
                              6 ; GNU C (GCC) version 4.3.6 (gcc6809) (m6809-unknown-none)
                              7 ;	compiled by GNU C version 7.4.0, GMP version 4.3.2, MPFR version 2.4.2.
                              8 ; GGC heuristics: --param ggc-min-expand=100 --param ggc-min-heapsize=131072
                              9 ; options passed:  -fno-gcse -fverbose-asm -W -Wall -Wextra -Wconversion
                             10 ; -Werror -fomit-frame-pointer -fno-toplevel-reorder -mint8
                             11 ; -msoft-reg-count=0 -std=gnu99 -fno-time-report
                             12 ; -IC:\Vide2.5.1.w64\Vide.w64\C\PeerC\vectrex\include -O3
                             13 ; -D__RUM_FUNCTION=1 -DOMMIT_FRAMEPOINTER=1
                             14 ; -IC:\Vide2.5.1.w64\Vide.w64\vectrex-pong\include
                             15 ; C:\Vide2.5.1.w64\Vide.w64\vectrex-pong\source\main.c
                             16 ; options enabled:  -falign-loops -fargument-alias -fauto-inc-dec
                             17 ; -fbranch-count-reg -fcaller-saves -fcommon -fcprop-registers
                             18 ; -fcrossjumping -fcse-follow-jumps -fdefer-pop
                             19 ; -fdelete-null-pointer-checks -fearly-inlining
                             20 ; -feliminate-unused-debug-types -fexpensive-optimizations
                             21 ; -fforward-propagate -ffunction-cse -fgcse-after-reload -fgcse-lm
                             22 ; -fguess-branch-probability -fident -fif-conversion -fif-conversion2
                             23 ; -finline-functions -finline-functions-called-once
                             24 ; -finline-small-functions -fipa-pure-const -fipa-reference -fivopts
                             25 ; -fkeep-static-consts -fleading-underscore -fmath-errno -fmerge-constants
                             26 ; -fmerge-debug-strings -fmove-loop-invariants -fomit-frame-pointer
                             27 ; -foptimize-register-move -foptimize-sibling-calls -fpcc-struct-return
                             28 ; -fpeephole -fpeephole2 -fpredictive-commoning -fregmove -freorder-blocks
                             29 ; -freorder-functions -frerun-cse-after-loop -fsched-interblock
                             30 ; -fsched-spec -fsched-stalled-insns-dep -fsigned-zeros
                             31 ; -fsplit-ivs-in-unroller -fsplit-wide-types -fstrict-aliasing
                             32 ; -fstrict-overflow -fthread-jumps -ftrapping-math -ftree-ccp -ftree-ch
                             33 ; -ftree-copy-prop -ftree-copyrename -ftree-dce -ftree-dominator-opts
                             34 ; -ftree-dse -ftree-fre -ftree-loop-im -ftree-loop-ivcanon
                             35 ; -ftree-loop-optimize -ftree-parallelize-loops= -ftree-pre -ftree-reassoc
                             36 ; -ftree-salias -ftree-scev-cprop -ftree-sink -ftree-sra -ftree-store-ccp
                             37 ; -ftree-ter -ftree-vect-loop-version -ftree-vectorize -ftree-vrp
                             38 ; -funit-at-a-time -funswitch-loops -fverbose-asm -fzero-initialized-in-bss
                             39 
                             40 ; Compiler executable checksum: 8f282e2d9663ae6148257c524e608c63
                             41 
                             42 	.area	.bss
                             43 	.globl	_current_song
   0000                      44 _current_song:	.blkb	2
                             45 	.globl	_player1_x
   0002                      46 _player1_x:	.blkb	1
                             47 	.globl	_player1_y
   0003                      48 _player1_y:	.blkb	1
                             49 	.globl	_player2_x
   0004                      50 _player2_x:	.blkb	1
                             51 	.globl	_player2_y
   0005                      52 _player2_y:	.blkb	1
                             53 	.globl	_player1_score_str
   0006                      54 _player1_score_str:	.blkb	7
                             55 	.globl	_player2_score_str
   000D                      56 _player2_score_str:	.blkb	7
                             57 	.globl	_dot_x
   0014                      58 _dot_x:	.blkb	1
                             59 	.globl	_dot_y
   0015                      60 _dot_y:	.blkb	1
                             61 	.globl	_dot_x_vel
   0016                      62 _dot_x_vel:	.blkb	1
                             63 	.globl	_dot_y_vel
   0017                      64 _dot_y_vel:	.blkb	1
                             65 	.globl	_default_velocity
                             66 	.area	.data
   0000                      67 _default_velocity:
   0000 02                   68 	.byte	2
                             69 	.area	.bss
                             70 	.globl	_dot_brightness
   0018                      71 _dot_brightness:	.blkb	1
                             72 	.globl	_brightness_fade_in
   0019                      73 _brightness_fade_in:	.blkb	1
                             74 	.globl	_dot_ticks
   001A                      75 _dot_ticks:	.blkb	1
                             76 	.globl	_flashes
   001B                      77 _flashes:	.blkb	1
                             78 	.area	.text
                             79 	.globl	_reset_round
   0000                      80 _reset_round:
   0000 7F 00 14      [ 7]   81 	clr	_dot_x	; dot_x
   0003 7F 00 15      [ 7]   82 	clr	_dot_y	; dot_y
   0006 F6 00 00      [ 5]   83 	ldb	_default_velocity	; default_velocity.4, default_velocity
   0009 50            [ 2]   84 	negb	; default_velocity.4
   000A F7 00 00      [ 5]   85 	stb	_default_velocity	; default_velocity.4, default_velocity
   000D F7 00 16      [ 5]   86 	stb	_dot_x_vel	; default_velocity.4, dot_x_vel
   0010 F7 00 17      [ 5]   87 	stb	_dot_y_vel	; default_velocity.4, dot_y_vel
   0013 7F 00 1A      [ 7]   88 	clr	_dot_ticks	; dot_ticks
   0016 7F 00 1B      [ 7]   89 	clr	_flashes	; flashes
   0019 7F 00 18      [ 7]   90 	clr	_dot_brightness	; dot_brightness
   001C C6 01         [ 2]   91 	ldb	#1	;,
   001E F7 00 19      [ 5]   92 	stb	_brightness_fade_in	;, brightness_fade_in
   0021 39            [ 5]   93 	rts
                             94 	.globl	_setup
   0022                      95 _setup:
   0022 7F 00 00      [ 7]   96 	clr	_Vec_Joy_Mux_1_X	; Vec_Joy_Mux_1_X
   0025 7F 00 00      [ 7]   97 	clr	_Vec_Joy_Mux_1_Y	; Vec_Joy_Mux_1_Y
   0028 7F 00 00      [ 7]   98 	clr	_Vec_Joy_Mux_2_X	; Vec_Joy_Mux_2_X
   002B 7F 00 00      [ 7]   99 	clr	_Vec_Joy_Mux_2_Y	; Vec_Joy_Mux_2_Y
   002E C6 01         [ 2]  100 	ldb	#1	;,
   0030 F7 00 00      [ 5]  101 	stb	_Vec_Music_Flag	;, Vec_Music_Flag
   0033 8E 00 00      [ 3]  102 	ldx	#_Vec_Music_9	;,
   0036 BF 00 00      [ 6]  103 	stx	_current_song	;, current_song
   0039 8E 00 06      [ 3]  104 	ldx	#_player1_score_str	;,
   003C BD 00 00      [ 8]  105 	jsr	___Clear_Score
   003F 8E 00 0D      [ 3]  106 	ldx	#_player2_score_str	;,
   0042 BD 00 00      [ 8]  107 	jsr	___Clear_Score
   0045 C6 80         [ 2]  108 	ldb	#-128	;,
   0047 F7 00 0C      [ 5]  109 	stb	_player1_score_str+6	;, player1_score_str
   004A F7 00 13      [ 5]  110 	stb	_player2_score_str+6	;, player2_score_str
   004D C6 EE         [ 2]  111 	ldb	#-18	;,
   004F F7 00 02      [ 5]  112 	stb	_player1_x	;, player1_x
   0052 C6 64         [ 2]  113 	ldb	#100	;,
   0054 F7 00 03      [ 5]  114 	stb	_player1_y	;, player1_y
   0057 C6 EE         [ 2]  115 	ldb	#-18	;,
   0059 F7 00 04      [ 5]  116 	stb	_player2_x	;, player2_x
   005C C6 9C         [ 2]  117 	ldb	#-100	;,
   005E F7 00 05      [ 5]  118 	stb	_player2_y	;, player2_y
   0061 7F 00 14      [ 7]  119 	clr	_dot_x	; dot_x
   0064 7F 00 15      [ 7]  120 	clr	_dot_y	; dot_y
   0067 F6 00 00      [ 5]  121 	ldb	_default_velocity	; default_velocity.4, default_velocity
   006A 50            [ 2]  122 	negb	; default_velocity.4
   006B F7 00 00      [ 5]  123 	stb	_default_velocity	; default_velocity.4, default_velocity
   006E F7 00 16      [ 5]  124 	stb	_dot_x_vel	; default_velocity.4, dot_x_vel
   0071 F7 00 17      [ 5]  125 	stb	_dot_y_vel	; default_velocity.4, dot_y_vel
   0074 7F 00 1A      [ 7]  126 	clr	_dot_ticks	; dot_ticks
   0077 7F 00 1B      [ 7]  127 	clr	_flashes	; flashes
   007A 7F 00 18      [ 7]  128 	clr	_dot_brightness	; dot_brightness
   007D C6 01         [ 2]  129 	ldb	#1	;,
   007F F7 00 19      [ 5]  130 	stb	_brightness_fade_in	;, brightness_fade_in
   0082 39            [ 5]  131 	rts
                            132 	.globl	_main
   0083                     133 _main:
   0083 32 76         [ 5]  134 	leas	-10,s	;,,
   0085 7F 00 00      [ 7]  135 	clr	_Vec_Joy_Mux_1_X	; Vec_Joy_Mux_1_X
   0088 7F 00 00      [ 7]  136 	clr	_Vec_Joy_Mux_1_Y	; Vec_Joy_Mux_1_Y
   008B 7F 00 00      [ 7]  137 	clr	_Vec_Joy_Mux_2_X	; Vec_Joy_Mux_2_X
   008E 7F 00 00      [ 7]  138 	clr	_Vec_Joy_Mux_2_Y	; Vec_Joy_Mux_2_Y
   0091 C6 01         [ 2]  139 	ldb	#1	;,
   0093 F7 00 00      [ 5]  140 	stb	_Vec_Music_Flag	;, Vec_Music_Flag
   0096 8E 00 00      [ 3]  141 	ldx	#_Vec_Music_9	;,
   0099 BF 00 00      [ 6]  142 	stx	_current_song	;, current_song
   009C 8E 00 06      [ 3]  143 	ldx	#_player1_score_str	;,
   009F BD 00 00      [ 8]  144 	jsr	___Clear_Score
   00A2 8E 00 0D      [ 3]  145 	ldx	#_player2_score_str	;,
   00A5 BD 00 00      [ 8]  146 	jsr	___Clear_Score
   00A8 C6 80         [ 2]  147 	ldb	#-128	;,
   00AA F7 00 0C      [ 5]  148 	stb	_player1_score_str+6	;, player1_score_str
   00AD F7 00 13      [ 5]  149 	stb	_player2_score_str+6	;, player2_score_str
   00B0 C6 EE         [ 2]  150 	ldb	#-18	;,
   00B2 F7 00 02      [ 5]  151 	stb	_player1_x	;, player1_x
   00B5 C6 64         [ 2]  152 	ldb	#100	;,
   00B7 F7 00 03      [ 5]  153 	stb	_player1_y	;, player1_y
   00BA C6 EE         [ 2]  154 	ldb	#-18	;,
   00BC F7 00 04      [ 5]  155 	stb	_player2_x	;, player2_x
   00BF C6 9C         [ 2]  156 	ldb	#-100	;,
   00C1 F7 00 05      [ 5]  157 	stb	_player2_y	;, player2_y
   00C4 7F 00 14      [ 7]  158 	clr	_dot_x	; dot_x
   00C7 7F 00 15      [ 7]  159 	clr	_dot_y	; dot_y
   00CA F6 00 00      [ 5]  160 	ldb	_default_velocity	; default_velocity.4, default_velocity
   00CD 50            [ 2]  161 	negb	; default_velocity.4
   00CE F7 00 00      [ 5]  162 	stb	_default_velocity	; default_velocity.4, default_velocity
   00D1 F7 00 16      [ 5]  163 	stb	_dot_x_vel	; default_velocity.4, dot_x_vel
   00D4 F7 00 17      [ 5]  164 	stb	_dot_y_vel	; default_velocity.4, dot_y_vel
   00D7 7F 00 1A      [ 7]  165 	clr	_dot_ticks	; dot_ticks
   00DA 7F 00 1B      [ 7]  166 	clr	_flashes	; flashes
   00DD 7F 00 18      [ 7]  167 	clr	_dot_brightness	; dot_brightness
   00E0 C6 01         [ 2]  168 	ldb	#1	;,
   00E2 F7 00 19      [ 5]  169 	stb	_brightness_fade_in	;, brightness_fade_in
   00E5 16 01 14      [ 5]  170 	lbra	L20	;
   00E8                     171 L6:
   00E8 7D 00 17      [ 7]  172 	tst	_dot_y_vel	; dot_y_vel
   00EB 10 2F 01 E0   [ 6]  173 	lble	L12	;
   00EF C6 12         [ 2]  174 	ldb	#18	;,
   00F1 E7 E2         [ 6]  175 	stb	,-s	;,
   00F3 5F            [ 2]  176 	clrb	;
   00F4 BD 00 00      [ 8]  177 	jsr	__Moveto_d
   00F7 C6 12         [ 2]  178 	ldb	#18	;,
   00F9 E7 E2         [ 6]  179 	stb	,-s	;,
   00FB 5F            [ 2]  180 	clrb	;
   00FC BD 00 00      [ 8]  181 	jsr	__Draw_Line_d
   00FF C6 F7         [ 2]  182 	ldb	#-9	;,
   0101 E7 E2         [ 6]  183 	stb	,-s	;,
   0103 BD 00 00      [ 8]  184 	jsr	__Draw_Line_d
   0106 C6 09         [ 2]  185 	ldb	#9	;,
   0108 E7 E2         [ 6]  186 	stb	,-s	;,
   010A BD 00 00      [ 8]  187 	jsr	__Moveto_d
   010D C6 F7         [ 2]  188 	ldb	#-9	;,
   010F E7 E2         [ 6]  189 	stb	,-s	;,
   0111 C6 09         [ 2]  190 	ldb	#9	;,
   0113 BD 00 00      [ 8]  191 	jsr	__Draw_Line_d
   0116 32 65         [ 5]  192 	leas	5,s	;,,
   0118                     193 L13:
   0118 7C 00 1A      [ 7]  194 	inc	_dot_ticks	; dot_ticks
   011B F6 00 1A      [ 5]  195 	ldb	_dot_ticks	; dot_ticks.35, dot_ticks
   011E C1 09         [ 2]  196 	cmpb	#9	;cmpqi:	; dot_ticks.35,
   0120 2F 0D         [ 3]  197 	ble	L8	;
   0122 7D 00 18      [ 7]  198 	tst	_dot_brightness	; dot_brightness
   0125 10 27 01 D4   [ 6]  199 	lbeq	L14	;
   0129 7F 00 18      [ 7]  200 	clr	_dot_brightness	; dot_brightness
   012C                     201 L15:
   012C 7F 00 1A      [ 7]  202 	clr	_dot_ticks	; dot_ticks
   012F                     203 L8:
   012F BD 00 00      [ 8]  204 	jsr	___Reset0Ref
   0132 C6 7F         [ 2]  205 	ldb	#127	;,
   0134 BD 00 00      [ 8]  206 	jsr	__Intensity_a
   0137 C6 7E         [ 2]  207 	ldb	#126	;,
   0139 E7 E2         [ 6]  208 	stb	,-s	;,
   013B CB 06         [ 2]  209 	addb	#6	;,
   013D BD 00 00      [ 8]  210 	jsr	__Moveto_d
   0140 C6 81         [ 2]  211 	ldb	#-127	;,
   0142 E7 E2         [ 6]  212 	stb	,-s	;,
   0144 5F            [ 2]  213 	clrb	;
   0145 BD 00 00      [ 8]  214 	jsr	__Draw_Line_d
   0148 C6 81         [ 2]  215 	ldb	#-127	;,
   014A E7 E2         [ 6]  216 	stb	,-s	;,
   014C 5F            [ 2]  217 	clrb	;
   014D BD 00 00      [ 8]  218 	jsr	__Draw_Line_d
   0150 6F E2         [ 8]  219 	clr	,-s	;
   0152 C6 7C         [ 2]  220 	ldb	#124	;,
   0154 BD 00 00      [ 8]  221 	jsr	__Moveto_d
   0157 6F E2         [ 8]  222 	clr	,-s	;
   0159 C6 7C         [ 2]  223 	ldb	#124	;,
   015B BD 00 00      [ 8]  224 	jsr	__Moveto_d
   015E C6 7F         [ 2]  225 	ldb	#127	;,
   0160 E7 E2         [ 6]  226 	stb	,-s	;,
   0162 5F            [ 2]  227 	clrb	;
   0163 BD 00 00      [ 8]  228 	jsr	__Draw_Line_d
   0166 C6 7F         [ 2]  229 	ldb	#127	;,
   0168 E7 E2         [ 6]  230 	stb	,-s	;,
   016A 5F            [ 2]  231 	clrb	;
   016B BD 00 00      [ 8]  232 	jsr	__Draw_Line_d
   016E C6 82         [ 2]  233 	ldb	#-126	;,
   0170 E7 E2         [ 6]  234 	stb	,-s	;,
   0172 CB 02         [ 2]  235 	addb	#2	;,
   0174 BD 00 00      [ 8]  236 	jsr	__Moveto_d
   0177 F6 00 00      [ 5]  237 	ldb	_Vec_Btn_State	;, Vec_Btn_State
   017A E7 69         [ 5]  238 	stb	9,s	;, D.3305
   017C 32 68         [ 5]  239 	leas	8,s	;,,
   017E C5 01         [ 2]  240 	bitb	#1	;,
   0180 27 0C         [ 3]  241 	beq	L16	;
   0182 F6 00 02      [ 5]  242 	ldb	_player1_x	; player1_x.8, player1_x
   0185 C1 89         [ 2]  243 	cmpb	#-119	;cmpqi:	; player1_x.8,
   0187 2D 05         [ 3]  244 	blt	L16	;
   0189 CB FD         [ 2]  245 	addb	#-3	; player1_x.8,
   018B F7 00 02      [ 5]  246 	stb	_player1_x	; player1_x.8, player1_x
   018E                     247 L16:
   018E C6 02         [ 2]  248 	ldb	#2	; tmp64,
   0190 E4 61         [ 5]  249 	andb	1,s	; tmp64, D.3305
   0192 27 0C         [ 3]  250 	beq	L17	;
   0194 F6 00 02      [ 5]  251 	ldb	_player1_x	; player1_x.77, player1_x
   0197 C1 53         [ 2]  252 	cmpb	#83	;cmpqi:	; player1_x.77,
   0199 2E 05         [ 3]  253 	bgt	L17	;
   019B CB 03         [ 2]  254 	addb	#3	; player1_x.77,
   019D F7 00 02      [ 5]  255 	stb	_player1_x	; player1_x.77, player1_x
   01A0                     256 L17:
   01A0 C6 04         [ 2]  257 	ldb	#4	; tmp65,
   01A2 E4 61         [ 5]  258 	andb	1,s	; tmp65, D.3305
   01A4 27 0C         [ 3]  259 	beq	L18	;
   01A6 F6 00 04      [ 5]  260 	ldb	_player2_x	; player2_x.11, player2_x
   01A9 C1 89         [ 2]  261 	cmpb	#-119	;cmpqi:	; player2_x.11,
   01AB 2D 05         [ 3]  262 	blt	L18	;
   01AD CB FD         [ 2]  263 	addb	#-3	; player2_x.11,
   01AF F7 00 04      [ 5]  264 	stb	_player2_x	; player2_x.11, player2_x
   01B2                     265 L18:
   01B2 C6 08         [ 2]  266 	ldb	#8	;,
   01B4 E4 61         [ 5]  267 	andb	1,s	;, D.3305
   01B6 27 0C         [ 3]  268 	beq	L19	;
   01B8 F6 00 04      [ 5]  269 	ldb	_player2_x	; player2_x.78, player2_x
   01BB C1 53         [ 2]  270 	cmpb	#83	;cmpqi:	; player2_x.78,
   01BD 2E 05         [ 3]  271 	bgt	L19	;
   01BF CB 03         [ 2]  272 	addb	#3	; player2_x.78,
   01C1 F7 00 04      [ 5]  273 	stb	_player2_x	; player2_x.78, player2_x
   01C4                     274 L19:
   01C4 F6 00 03      [ 5]  275 	ldb	_player1_y	;, player1_y
   01C7 E7 E2         [ 6]  276 	stb	,-s	;,
   01C9 F6 00 02      [ 5]  277 	ldb	_player1_x	;, player1_x
   01CC BD 00 00      [ 8]  278 	jsr	__Moveto_d
   01CF 6F E2         [ 8]  279 	clr	,-s	;
   01D1 C6 24         [ 2]  280 	ldb	#36	;,
   01D3 BD 00 00      [ 8]  281 	jsr	__Draw_Line_d
   01D6 C6 DC         [ 2]  282 	ldb	#-36	; tmp68,
   01D8 F0 00 02      [ 5]  283 	subb	_player1_x	; tmp68, player1_x
   01DB E7 62         [ 5]  284 	stb	2,s	; tmp68,
   01DD F6 00 03      [ 5]  285 	ldb	_player1_y	;, player1_y
   01E0 50            [ 2]  286 	negb	;
   01E1 34 04         [ 6]  287 	pshs	b	;
   01E3 E6 63         [ 5]  288 	ldb	3,s	;,
   01E5 BD 00 00      [ 8]  289 	jsr	__Moveto_d
   01E8 F6 00 05      [ 5]  290 	ldb	_player2_y	;, player2_y
   01EB E7 E2         [ 6]  291 	stb	,-s	;,
   01ED F6 00 04      [ 5]  292 	ldb	_player2_x	;, player2_x
   01F0 BD 00 00      [ 8]  293 	jsr	__Moveto_d
   01F3 6F E2         [ 8]  294 	clr	,-s	;
   01F5 C6 24         [ 2]  295 	ldb	#36	;,
   01F7 BD 00 00      [ 8]  296 	jsr	__Draw_Line_d
   01FA 32 65         [ 5]  297 	leas	5,s	;,,
   01FC                     298 L20:
   01FC BD 00 00      [ 8]  299 	jsr	___DP_to_C8
   01FF BE 00 00      [ 6]  300 	ldx	_current_song	;, current_song
   0202 BD 00 00      [ 8]  301 	jsr	__Init_Music_chk
   0205 BD 00 00      [ 8]  302 	jsr	___Wait_Recal
   0208 BD 00 00      [ 8]  303 	jsr	__Do_Sound
   020B BD 00 00      [ 8]  304 	jsr	___Read_Btns
   020E C6 7F         [ 2]  305 	ldb	#127	;,
   0210 BD 00 00      [ 8]  306 	jsr	__Intensity_a
   0213 C6 7F         [ 2]  307 	ldb	#127	;,
   0215 F7 00 00      [ 5]  308 	stb	_VIA_t1_cnt_lo	;, VIA_t1_cnt_lo
   0218 E7 E2         [ 6]  309 	stb	,-s	;,
   021A 8E 00 06      [ 3]  310 	ldx	#_player1_score_str	;,
   021D C6 BE         [ 2]  311 	ldb	#-66	;,
   021F BD 00 00      [ 8]  312 	jsr	__Print_Str_d
   0222 C6 80         [ 2]  313 	ldb	#-128	;,
   0224 E7 E2         [ 6]  314 	stb	,-s	;,
   0226 8E 00 0D      [ 3]  315 	ldx	#_player2_score_str	;,
   0229 CB 3E         [ 2]  316 	addb	#62	;,
   022B BD 00 00      [ 8]  317 	jsr	__Print_Str_d
   022E F6 00 18      [ 5]  318 	ldb	_dot_brightness	;, dot_brightness
   0231 BD 00 00      [ 8]  319 	jsr	__Intensity_a
   0234 F6 00 15      [ 5]  320 	ldb	_dot_y	;, dot_y
   0237 E7 E2         [ 6]  321 	stb	,-s	;,
   0239 F6 00 14      [ 5]  322 	ldb	_dot_x	;, dot_x
   023C BD 00 00      [ 8]  323 	jsr	__Dot_d
   023F 32 63         [ 5]  324 	leas	3,s	;,,
   0241 F6 00 1B      [ 5]  325 	ldb	_flashes	;, flashes
   0244 C1 04         [ 2]  326 	cmpb	#4	;cmpqi:	;,
   0246 10 2F FE 9E   [ 6]  327 	lble	L6	;
   024A C6 7F         [ 2]  328 	ldb	#127	;,
   024C F7 00 18      [ 5]  329 	stb	_dot_brightness	;, dot_brightness
   024F F6 00 16      [ 5]  330 	ldb	_dot_x_vel	;, dot_x_vel
   0252 E7 69         [ 5]  331 	stb	9,s	;, dot_x_vel.19
   0254 FB 00 14      [ 5]  332 	addb	_dot_x	;, dot_x
   0257 E7 68         [ 5]  333 	stb	8,s	;, dot_x.20
   0259 F7 00 14      [ 5]  334 	stb	_dot_x	;, dot_x
   025C F6 00 17      [ 5]  335 	ldb	_dot_y_vel	;, dot_y_vel
   025F E7 67         [ 5]  336 	stb	7,s	;, dot_y_vel.22
   0261 FB 00 15      [ 5]  337 	addb	_dot_y	;, dot_y
   0264 E7 66         [ 5]  338 	stb	6,s	;, dot_y.23
   0266 F7 00 15      [ 5]  339 	stb	_dot_y	;, dot_y
   0269 8E 00 0D      [ 3]  340 	ldx	#_player2_score_str	;,
   026C C1 7A         [ 2]  341 	cmpb	#122	;cmpqi:	;,
   026E 10 2E 00 99   [ 6]  342 	lbgt	L23	;
   0272 C1 86         [ 2]  343 	cmpb	#-122	;cmpqi:	;,
   0274 10 2D 00 90   [ 6]  344 	lblt	L25	;
   0278 F6 00 02      [ 5]  345 	ldb	_player1_x	;, player1_x
   027B E7 65         [ 5]  346 	stb	5,s	;, player1_x.24
   027D E0 69         [ 5]  347 	subb	9,s	; tmp50, dot_x_vel.19
   027F E1 68         [ 5]  348 	cmpb	8,s	;cmpqi:(R)	; tmp50, dot_x.20
   0281 10 2E 00 AF   [ 6]  349 	lbgt	L10	;
   0285 E6 69         [ 5]  350 	ldb	9,s	;, dot_x_vel.19
   0287 EB 65         [ 5]  351 	addb	5,s	;, player1_x.24
   0289 CB 24         [ 2]  352 	addb	#36	;,
   028B E7 65         [ 5]  353 	stb	5,s	;, player1_x.24
   028D E6 68         [ 5]  354 	ldb	8,s	;, dot_x.20
   028F E1 65         [ 5]  355 	cmpb	5,s	;cmpqi:	;, player1_x.24
   0291 10 2E 00 9F   [ 6]  356 	lbgt	L10	;
   0295 F6 00 03      [ 5]  357 	ldb	_player1_y	;, player1_y
   0298 E7 64         [ 5]  358 	stb	4,s	;, player1_y.25
   029A E0 67         [ 5]  359 	subb	7,s	; tmp53, dot_y_vel.22
   029C E1 66         [ 5]  360 	cmpb	6,s	;cmpqi:(R)	; tmp53, dot_y.23
   029E 10 2E 00 92   [ 6]  361 	lbgt	L10	;
   02A2 E6 64         [ 5]  362 	ldb	4,s	;, player1_y.25
   02A4 EB 67         [ 5]  363 	addb	7,s	;, dot_y_vel.22
   02A6 E7 64         [ 5]  364 	stb	4,s	;, player1_y.25
   02A8 E6 66         [ 5]  365 	ldb	6,s	;, dot_y.23
   02AA E1 64         [ 5]  366 	cmpb	4,s	;cmpqi:	;, player1_y.25
   02AC 10 2E 00 84   [ 6]  367 	lbgt	L10	;
   02B0                     368 L22:
   02B0 E6 67         [ 5]  369 	ldb	7,s	; dot_y_vel.81, dot_y_vel.22
   02B2 50            [ 2]  370 	negb	; dot_y_vel.81
   02B3 F7 00 17      [ 5]  371 	stb	_dot_y_vel	; dot_y_vel.81, dot_y_vel
   02B6 58            [ 2]  372 	aslb	; dot_y_vel.81
   02B7 EB 66         [ 5]  373 	addb	6,s	; dot_y_vel.81, dot_y.23
   02B9 F7 00 15      [ 5]  374 	stb	_dot_y	; dot_y_vel.81, dot_y
   02BC                     375 L11:
   02BC E6 68         [ 5]  376 	ldb	8,s	;, dot_x.20
   02BE CB 78         [ 2]  377 	addb	#120	;,
   02C0 C1 F0         [ 2]  378 	cmpb	#-16	;cmpqi:	;,
   02C2 10 23 FE 69   [ 6]  379 	lbls	L8	;
   02C6 E6 69         [ 5]  380 	ldb	9,s	;, dot_x_vel.19
   02C8 50            [ 2]  381 	negb	;
   02C9 F7 00 16      [ 5]  382 	stb	_dot_x_vel	;, dot_x_vel
   02CC 16 FE 60      [ 5]  383 	lbra	L8	;
   02CF                     384 L12:
   02CF C6 EE         [ 2]  385 	ldb	#-18	;,
   02D1 E7 E2         [ 6]  386 	stb	,-s	;,
   02D3 5F            [ 2]  387 	clrb	;
   02D4 BD 00 00      [ 8]  388 	jsr	__Moveto_d
   02D7 C6 EE         [ 2]  389 	ldb	#-18	;,
   02D9 E7 E2         [ 6]  390 	stb	,-s	;,
   02DB 5F            [ 2]  391 	clrb	;
   02DC BD 00 00      [ 8]  392 	jsr	__Draw_Line_d
   02DF C6 09         [ 2]  393 	ldb	#9	;,
   02E1 E7 E2         [ 6]  394 	stb	,-s	;,
   02E3 C6 F7         [ 2]  395 	ldb	#-9	;,
   02E5 BD 00 00      [ 8]  396 	jsr	__Draw_Line_d
   02E8 C6 F7         [ 2]  397 	ldb	#-9	;,
   02EA E7 E2         [ 6]  398 	stb	,-s	;,
   02EC C6 09         [ 2]  399 	ldb	#9	;,
   02EE BD 00 00      [ 8]  400 	jsr	__Moveto_d
   02F1 C6 09         [ 2]  401 	ldb	#9	;,
   02F3 E7 E2         [ 6]  402 	stb	,-s	;,
   02F5 BD 00 00      [ 8]  403 	jsr	__Draw_Line_d
   02F8 32 65         [ 5]  404 	leas	5,s	;,,
   02FA 16 FE 1B      [ 5]  405 	lbra	L13	;
   02FD                     406 L14:
   02FD C6 7F         [ 2]  407 	ldb	#127	;,
   02FF F7 00 18      [ 5]  408 	stb	_dot_brightness	;, dot_brightness
   0302 7C 00 1B      [ 7]  409 	inc	_flashes	; flashes
   0305 16 FE 24      [ 5]  410 	lbra	L15	;
   0308                     411 L25:
   0308 8E 00 06      [ 3]  412 	ldx	#_player1_score_str	;,
   030B                     413 L23:
   030B C6 01         [ 2]  414 	ldb	#1	;,
   030D BD 00 00      [ 8]  415 	jsr	__Add_Score_a
   0310 7F 00 14      [ 7]  416 	clr	_dot_x	; dot_x
   0313 7F 00 15      [ 7]  417 	clr	_dot_y	; dot_y
   0316 F6 00 00      [ 5]  418 	ldb	_default_velocity	; default_velocity.4, default_velocity
   0319 50            [ 2]  419 	negb	; default_velocity.4
   031A F7 00 00      [ 5]  420 	stb	_default_velocity	; default_velocity.4, default_velocity
   031D F7 00 16      [ 5]  421 	stb	_dot_x_vel	; default_velocity.4, dot_x_vel
   0320 F7 00 17      [ 5]  422 	stb	_dot_y_vel	; default_velocity.4, dot_y_vel
   0323 7F 00 1A      [ 7]  423 	clr	_dot_ticks	; dot_ticks
   0326 7F 00 1B      [ 7]  424 	clr	_flashes	; flashes
   0329 7F 00 18      [ 7]  425 	clr	_dot_brightness	; dot_brightness
   032C C6 01         [ 2]  426 	ldb	#1	;,
   032E F7 00 19      [ 5]  427 	stb	_brightness_fade_in	;, brightness_fade_in
   0331 16 FD FB      [ 5]  428 	lbra	L8	;
   0334                     429 L10:
   0334 F6 00 04      [ 5]  430 	ldb	_player2_x	;, player2_x
   0337 E7 63         [ 5]  431 	stb	3,s	;, player2_x.28
   0339 E0 69         [ 5]  432 	subb	9,s	; tmp56, dot_x_vel.19
   033B E1 68         [ 5]  433 	cmpb	8,s	;cmpqi:(R)	; tmp56, dot_x.20
   033D 10 2E FF 7B   [ 6]  434 	lbgt	L11	;
   0341 E6 69         [ 5]  435 	ldb	9,s	;, dot_x_vel.19
   0343 EB 63         [ 5]  436 	addb	3,s	;, player2_x.28
   0345 CB 24         [ 2]  437 	addb	#36	;,
   0347 E7 63         [ 5]  438 	stb	3,s	;, player2_x.28
   0349 E6 68         [ 5]  439 	ldb	8,s	;, dot_x.20
   034B E1 63         [ 5]  440 	cmpb	3,s	;cmpqi:	;, player2_x.28
   034D 10 2E FF 6B   [ 6]  441 	lbgt	L11	;
   0351 F6 00 05      [ 5]  442 	ldb	_player2_y	;, player2_y
   0354 E7 62         [ 5]  443 	stb	2,s	;, player2_y.29
   0356 EB 67         [ 5]  444 	addb	7,s	; tmp59, dot_y_vel.22
   0358 E1 66         [ 5]  445 	cmpb	6,s	;cmpqi:(R)	; tmp59, dot_y.23
   035A 10 2E FF 5E   [ 6]  446 	lbgt	L11	;
   035E E6 62         [ 5]  447 	ldb	2,s	; tmp60, player2_y.29
   0360 E0 67         [ 5]  448 	subb	7,s	; tmp60, dot_y_vel.22
   0362 E1 66         [ 5]  449 	cmpb	6,s	;cmpqi:(R)	; tmp60, dot_y.23
   0364 10 2D FF 54   [ 6]  450 	lblt	L11	;
   0368 16 FF 45      [ 5]  451 	lbra	L22	;
ASxxxx Assembler V05.00  (Motorola 6809), page 1.
Hexidecimal [16-Bits]

Symbol Table

    .__.$$$.       =   2710 L   |     .__.ABS.       =   0000 G
    .__.CPU.       =   0000 L   |     .__.H$L.       =   0001 L
  4 A$main$100         002E GR  |   4 A$main$101         0030 GR
  4 A$main$102         0033 GR  |   4 A$main$103         0036 GR
  4 A$main$104         0039 GR  |   4 A$main$105         003C GR
  4 A$main$106         003F GR  |   4 A$main$107         0042 GR
  4 A$main$108         0045 GR  |   4 A$main$109         0047 GR
  4 A$main$110         004A GR  |   4 A$main$111         004D GR
  4 A$main$112         004F GR  |   4 A$main$113         0052 GR
  4 A$main$114         0054 GR  |   4 A$main$115         0057 GR
  4 A$main$116         0059 GR  |   4 A$main$117         005C GR
  4 A$main$118         005E GR  |   4 A$main$119         0061 GR
  4 A$main$120         0064 GR  |   4 A$main$121         0067 GR
  4 A$main$122         006A GR  |   4 A$main$123         006B GR
  4 A$main$124         006E GR  |   4 A$main$125         0071 GR
  4 A$main$126         0074 GR  |   4 A$main$127         0077 GR
  4 A$main$128         007A GR  |   4 A$main$129         007D GR
  4 A$main$130         007F GR  |   4 A$main$131         0082 GR
  4 A$main$134         0083 GR  |   4 A$main$135         0085 GR
  4 A$main$136         0088 GR  |   4 A$main$137         008B GR
  4 A$main$138         008E GR  |   4 A$main$139         0091 GR
  4 A$main$140         0093 GR  |   4 A$main$141         0096 GR
  4 A$main$142         0099 GR  |   4 A$main$143         009C GR
  4 A$main$144         009F GR  |   4 A$main$145         00A2 GR
  4 A$main$146         00A5 GR  |   4 A$main$147         00A8 GR
  4 A$main$148         00AA GR  |   4 A$main$149         00AD GR
  4 A$main$150         00B0 GR  |   4 A$main$151         00B2 GR
  4 A$main$152         00B5 GR  |   4 A$main$153         00B7 GR
  4 A$main$154         00BA GR  |   4 A$main$155         00BC GR
  4 A$main$156         00BF GR  |   4 A$main$157         00C1 GR
  4 A$main$158         00C4 GR  |   4 A$main$159         00C7 GR
  4 A$main$160         00CA GR  |   4 A$main$161         00CD GR
  4 A$main$162         00CE GR  |   4 A$main$163         00D1 GR
  4 A$main$164         00D4 GR  |   4 A$main$165         00D7 GR
  4 A$main$166         00DA GR  |   4 A$main$167         00DD GR
  4 A$main$168         00E0 GR  |   4 A$main$169         00E2 GR
  4 A$main$170         00E5 GR  |   4 A$main$172         00E8 GR
  4 A$main$173         00EB GR  |   4 A$main$174         00EF GR
  4 A$main$175         00F1 GR  |   4 A$main$176         00F3 GR
  4 A$main$177         00F4 GR  |   4 A$main$178         00F7 GR
  4 A$main$179         00F9 GR  |   4 A$main$180         00FB GR
  4 A$main$181         00FC GR  |   4 A$main$182         00FF GR
  4 A$main$183         0101 GR  |   4 A$main$184         0103 GR
  4 A$main$185         0106 GR  |   4 A$main$186         0108 GR
  4 A$main$187         010A GR  |   4 A$main$188         010D GR
  4 A$main$189         010F GR  |   4 A$main$190         0111 GR
  4 A$main$191         0113 GR  |   4 A$main$192         0116 GR
  4 A$main$194         0118 GR  |   4 A$main$195         011B GR
  4 A$main$196         011E GR  |   4 A$main$197         0120 GR
  4 A$main$198         0122 GR  |   4 A$main$199         0125 GR
  4 A$main$200         0129 GR  |   4 A$main$202         012C GR
  4 A$main$204         012F GR  |   4 A$main$205         0132 GR
  4 A$main$206         0134 GR  |   4 A$main$207         0137 GR
  4 A$main$208         0139 GR  |   4 A$main$209         013B GR
  4 A$main$210         013D GR  |   4 A$main$211         0140 GR
  4 A$main$212         0142 GR  |   4 A$main$213         0144 GR
  4 A$main$214         0145 GR  |   4 A$main$215         0148 GR
  4 A$main$216         014A GR  |   4 A$main$217         014C GR
  4 A$main$218         014D GR  |   4 A$main$219         0150 GR
  4 A$main$220         0152 GR  |   4 A$main$221         0154 GR
  4 A$main$222         0157 GR  |   4 A$main$223         0159 GR
  4 A$main$224         015B GR  |   4 A$main$225         015E GR
  4 A$main$226         0160 GR  |   4 A$main$227         0162 GR
  4 A$main$228         0163 GR  |   4 A$main$229         0166 GR
  4 A$main$230         0168 GR  |   4 A$main$231         016A GR
  4 A$main$232         016B GR  |   4 A$main$233         016E GR
  4 A$main$234         0170 GR  |   4 A$main$235         0172 GR
  4 A$main$236         0174 GR  |   4 A$main$237         0177 GR
  4 A$main$238         017A GR  |   4 A$main$239         017C GR
  4 A$main$240         017E GR  |   4 A$main$241         0180 GR
  4 A$main$242         0182 GR  |   4 A$main$243         0185 GR
  4 A$main$244         0187 GR  |   4 A$main$245         0189 GR
  4 A$main$246         018B GR  |   4 A$main$248         018E GR
  4 A$main$249         0190 GR  |   4 A$main$250         0192 GR
  4 A$main$251         0194 GR  |   4 A$main$252         0197 GR
  4 A$main$253         0199 GR  |   4 A$main$254         019B GR
  4 A$main$255         019D GR  |   4 A$main$257         01A0 GR
  4 A$main$258         01A2 GR  |   4 A$main$259         01A4 GR
  4 A$main$260         01A6 GR  |   4 A$main$261         01A9 GR
  4 A$main$262         01AB GR  |   4 A$main$263         01AD GR
  4 A$main$264         01AF GR  |   4 A$main$266         01B2 GR
  4 A$main$267         01B4 GR  |   4 A$main$268         01B6 GR
  4 A$main$269         01B8 GR  |   4 A$main$270         01BB GR
  4 A$main$271         01BD GR  |   4 A$main$272         01BF GR
  4 A$main$273         01C1 GR  |   4 A$main$275         01C4 GR
  4 A$main$276         01C7 GR  |   4 A$main$277         01C9 GR
  4 A$main$278         01CC GR  |   4 A$main$279         01CF GR
  4 A$main$280         01D1 GR  |   4 A$main$281         01D3 GR
  4 A$main$282         01D6 GR  |   4 A$main$283         01D8 GR
  4 A$main$284         01DB GR  |   4 A$main$285         01DD GR
  4 A$main$286         01E0 GR  |   4 A$main$287         01E1 GR
  4 A$main$288         01E3 GR  |   4 A$main$289         01E5 GR
  4 A$main$290         01E8 GR  |   4 A$main$291         01EB GR
  4 A$main$292         01ED GR  |   4 A$main$293         01F0 GR
  4 A$main$294         01F3 GR  |   4 A$main$295         01F5 GR
  4 A$main$296         01F7 GR  |   4 A$main$297         01FA GR
  4 A$main$299         01FC GR  |   4 A$main$300         01FF GR
  4 A$main$301         0202 GR  |   4 A$main$302         0205 GR
  4 A$main$303         0208 GR  |   4 A$main$304         020B GR
  4 A$main$305         020E GR  |   4 A$main$306         0210 GR
  4 A$main$307         0213 GR  |   4 A$main$308         0215 GR
  4 A$main$309         0218 GR  |   4 A$main$310         021A GR
  4 A$main$311         021D GR  |   4 A$main$312         021F GR
  4 A$main$313         0222 GR  |   4 A$main$314         0224 GR
  4 A$main$315         0226 GR  |   4 A$main$316         0229 GR
  4 A$main$317         022B GR  |   4 A$main$318         022E GR
  4 A$main$319         0231 GR  |   4 A$main$320         0234 GR
  4 A$main$321         0237 GR  |   4 A$main$322         0239 GR
  4 A$main$323         023C GR  |   4 A$main$324         023F GR
  4 A$main$325         0241 GR  |   4 A$main$326         0244 GR
  4 A$main$327         0246 GR  |   4 A$main$328         024A GR
  4 A$main$329         024C GR  |   4 A$main$330         024F GR
  4 A$main$331         0252 GR  |   4 A$main$332         0254 GR
  4 A$main$333         0257 GR  |   4 A$main$334         0259 GR
  4 A$main$335         025C GR  |   4 A$main$336         025F GR
  4 A$main$337         0261 GR  |   4 A$main$338         0264 GR
  4 A$main$339         0266 GR  |   4 A$main$340         0269 GR
  4 A$main$341         026C GR  |   4 A$main$342         026E GR
  4 A$main$343         0272 GR  |   4 A$main$344         0274 GR
  4 A$main$345         0278 GR  |   4 A$main$346         027B GR
  4 A$main$347         027D GR  |   4 A$main$348         027F GR
  4 A$main$349         0281 GR  |   4 A$main$350         0285 GR
  4 A$main$351         0287 GR  |   4 A$main$352         0289 GR
  4 A$main$353         028B GR  |   4 A$main$354         028D GR
  4 A$main$355         028F GR  |   4 A$main$356         0291 GR
  4 A$main$357         0295 GR  |   4 A$main$358         0298 GR
  4 A$main$359         029A GR  |   4 A$main$360         029C GR
  4 A$main$361         029E GR  |   4 A$main$362         02A2 GR
  4 A$main$363         02A4 GR  |   4 A$main$364         02A6 GR
  4 A$main$365         02A8 GR  |   4 A$main$366         02AA GR
  4 A$main$367         02AC GR  |   4 A$main$369         02B0 GR
  4 A$main$370         02B2 GR  |   4 A$main$371         02B3 GR
  4 A$main$372         02B6 GR  |   4 A$main$373         02B7 GR
  4 A$main$374         02B9 GR  |   4 A$main$376         02BC GR
  4 A$main$377         02BE GR  |   4 A$main$378         02C0 GR
  4 A$main$379         02C2 GR  |   4 A$main$380         02C6 GR
  4 A$main$381         02C8 GR  |   4 A$main$382         02C9 GR
  4 A$main$383         02CC GR  |   4 A$main$385         02CF GR
  4 A$main$386         02D1 GR  |   4 A$main$387         02D3 GR
  4 A$main$388         02D4 GR  |   4 A$main$389         02D7 GR
  4 A$main$390         02D9 GR  |   4 A$main$391         02DB GR
  4 A$main$392         02DC GR  |   4 A$main$393         02DF GR
  4 A$main$394         02E1 GR  |   4 A$main$395         02E3 GR
  4 A$main$396         02E5 GR  |   4 A$main$397         02E8 GR
  4 A$main$398         02EA GR  |   4 A$main$399         02EC GR
  4 A$main$400         02EE GR  |   4 A$main$401         02F1 GR
  4 A$main$402         02F3 GR  |   4 A$main$403         02F5 GR
  4 A$main$404         02F8 GR  |   4 A$main$405         02FA GR
  4 A$main$407         02FD GR  |   4 A$main$408         02FF GR
  4 A$main$409         0302 GR  |   4 A$main$410         0305 GR
  4 A$main$412         0308 GR  |   4 A$main$414         030B GR
  4 A$main$415         030D GR  |   4 A$main$416         0310 GR
  4 A$main$417         0313 GR  |   4 A$main$418         0316 GR
  4 A$main$419         0319 GR  |   4 A$main$420         031A GR
  4 A$main$421         031D GR  |   4 A$main$422         0320 GR
  4 A$main$423         0323 GR  |   4 A$main$424         0326 GR
  4 A$main$425         0329 GR  |   4 A$main$426         032C GR
  4 A$main$427         032E GR  |   4 A$main$428         0331 GR
  4 A$main$430         0334 GR  |   4 A$main$431         0337 GR
  4 A$main$432         0339 GR  |   4 A$main$433         033B GR
  4 A$main$434         033D GR  |   4 A$main$435         0341 GR
  4 A$main$436         0343 GR  |   4 A$main$437         0345 GR
  4 A$main$438         0347 GR  |   4 A$main$439         0349 GR
  4 A$main$440         034B GR  |   4 A$main$441         034D GR
  4 A$main$442         0351 GR  |   4 A$main$443         0354 GR
  4 A$main$444         0356 GR  |   4 A$main$445         0358 GR
  4 A$main$446         035A GR  |   4 A$main$447         035E GR
  4 A$main$448         0360 GR  |   4 A$main$449         0362 GR
  4 A$main$450         0364 GR  |   4 A$main$451         0368 GR
  4 A$main$81          0000 GR  |   4 A$main$82          0003 GR
  4 A$main$83          0006 GR  |   4 A$main$84          0009 GR
  4 A$main$85          000A GR  |   4 A$main$86          000D GR
  4 A$main$87          0010 GR  |   4 A$main$88          0013 GR
  4 A$main$89          0016 GR  |   4 A$main$90          0019 GR
  4 A$main$91          001C GR  |   4 A$main$92          001E GR
  4 A$main$93          0021 GR  |   4 A$main$96          0022 GR
  4 A$main$97          0025 GR  |   4 A$main$98          0028 GR
  4 A$main$99          002B GR  |   4 L10                0334 R
  4 L11                02BC R   |   4 L12                02CF R
  4 L13                0118 R   |   4 L14                02FD R
  4 L15                012C R   |   4 L16                018E R
  4 L17                01A0 R   |   4 L18                01B2 R
  4 L19                01C4 R   |   4 L20                01FC R
  4 L22                02B0 R   |   4 L23                030B R
  4 L25                0308 R   |   4 L6                 00E8 R
  4 L8                 012F R   |     _VIA_t1_cnt_lo     **** GX
    _Vec_Btn_State     **** GX  |     _Vec_Joy_Mux_1     **** GX
    _Vec_Joy_Mux_1     **** GX  |     _Vec_Joy_Mux_2     **** GX
    _Vec_Joy_Mux_2     **** GX  |     _Vec_Music_9       **** GX
    _Vec_Music_Fla     **** GX  |     __Add_Score_a      **** GX
    __Do_Sound         **** GX  |     __Dot_d            **** GX
    __Draw_Line_d      **** GX  |     __Init_Music_c     **** GX
    __Intensity_a      **** GX  |     __Moveto_d         **** GX
    __Print_Str_d      **** GX  |     ___Clear_Score     **** GX
    ___DP_to_C8        **** GX  |     ___Read_Btns       **** GX
    ___Reset0Ref       **** GX  |     ___Wait_Recal      **** GX
  2 _brightness_fa     0019 GR  |   2 _current_song      0000 GR
  3 _default_veloc     0000 GR  |   2 _dot_brightnes     0018 GR
  2 _dot_ticks         001A GR  |   2 _dot_x             0014 GR
  2 _dot_x_vel         0016 GR  |   2 _dot_y             0015 GR
  2 _dot_y_vel         0017 GR  |   2 _flashes           001B GR
  4 _main              0083 GR  |   2 _player1_score     0006 GR
  2 _player1_x         0002 GR  |   2 _player1_y         0003 GR
  2 _player2_score     000D GR  |   2 _player2_x         0004 GR
  2 _player2_y         0005 GR  |   4 _reset_round       0000 GR
  4 _setup             0022 GR

ASxxxx Assembler V05.00  (Motorola 6809), page 2.
Hexidecimal [16-Bits]

Area Table

[_CSEG]
   0 _CODE            size    0   flags C080
   2 .bss             size   1C   flags    0
   3 .data            size    1   flags  100
   4 .text            size  36B   flags  100
[_DSEG]
   1 _DATA            size    0   flags C0C0

